
target/kernel:     file format elf64-littleriscv


Disassembly of section .text:

0000000080200000 <_entry>:
    80200000:	00150293          	addi	t0,a0,1
    80200004:	02ba                	slli	t0,t0,0xe
    80200006:	00033117          	auipc	sp,0x33
    8020000a:	32213103          	ld	sp,802(sp) # 80233328 <_GLOBAL_OFFSET_TABLE_+0x50>
    8020000e:	9116                	add	sp,sp,t0
    80200010:	203000ef          	jal	ra,80200a12 <main>

0000000080200014 <loop>:
    80200014:	a001                	j	80200014 <loop>

0000000080200016 <printint>:
    }
}

static void
printint(int xx, int base, int sign)
{
    80200016:	7179                	addi	sp,sp,-48
    80200018:	f406                	sd	ra,40(sp)
    8020001a:	f022                	sd	s0,32(sp)
    8020001c:	ec26                	sd	s1,24(sp)
    8020001e:	e84a                	sd	s2,16(sp)
    80200020:	1800                	addi	s0,sp,48
  char buf[16];
  int i;
  uint x;

  if(sign && (sign = xx < 0))
    80200022:	c219                	beqz	a2,80200028 <printint+0x12>
    80200024:	08054663          	bltz	a0,802000b0 <printint+0x9a>
    x = -xx;
  else
    x = xx;
    80200028:	2501                	sext.w	a0,a0
    8020002a:	4881                	li	a7,0

  i = 0;
    8020002c:	fd040913          	addi	s2,s0,-48
    x = xx;
    80200030:	86ca                	mv	a3,s2
  i = 0;
    80200032:	4701                	li	a4,0
  do {
    buf[i++] = digits[x % base];
    80200034:	2581                	sext.w	a1,a1
    80200036:	00009617          	auipc	a2,0x9
    8020003a:	34a60613          	addi	a2,a2,842 # 80209380 <digits>
    8020003e:	883a                	mv	a6,a4
    80200040:	2705                	addiw	a4,a4,1
    80200042:	02b577bb          	remuw	a5,a0,a1
    80200046:	1782                	slli	a5,a5,0x20
    80200048:	9381                	srli	a5,a5,0x20
    8020004a:	97b2                	add	a5,a5,a2
    8020004c:	0007c783          	lbu	a5,0(a5)
    80200050:	00f68023          	sb	a5,0(a3)
  } while((x /= base) != 0);
    80200054:	0005079b          	sext.w	a5,a0
    80200058:	02b5553b          	divuw	a0,a0,a1
    8020005c:	0685                	addi	a3,a3,1
    8020005e:	feb7f0e3          	bgeu	a5,a1,8020003e <printint+0x28>

  if(sign)
    80200062:	00088c63          	beqz	a7,8020007a <printint+0x64>
    buf[i++] = '-';
    80200066:	fe070793          	addi	a5,a4,-32
    8020006a:	00878733          	add	a4,a5,s0
    8020006e:	02d00793          	li	a5,45
    80200072:	fef70823          	sb	a5,-16(a4)
    80200076:	0028071b          	addiw	a4,a6,2

  while(--i >= 0)
    8020007a:	02e05563          	blez	a4,802000a4 <printint+0x8e>
    8020007e:	fd040493          	addi	s1,s0,-48
    80200082:	94ba                	add	s1,s1,a4
    80200084:	197d                	addi	s2,s2,-1
    80200086:	993a                	add	s2,s2,a4
    80200088:	377d                	addiw	a4,a4,-1
    8020008a:	1702                	slli	a4,a4,0x20
    8020008c:	9301                	srli	a4,a4,0x20
    8020008e:	40e90933          	sub	s2,s2,a4
    consputc(buf[i]);
    80200092:	fff4c503          	lbu	a0,-1(s1)
    80200096:	00007097          	auipc	ra,0x7
    8020009a:	628080e7          	jalr	1576(ra) # 802076be <consputc>
  while(--i >= 0)
    8020009e:	14fd                	addi	s1,s1,-1
    802000a0:	ff2499e3          	bne	s1,s2,80200092 <printint+0x7c>
}
    802000a4:	70a2                	ld	ra,40(sp)
    802000a6:	7402                	ld	s0,32(sp)
    802000a8:	64e2                	ld	s1,24(sp)
    802000aa:	6942                	ld	s2,16(sp)
    802000ac:	6145                	addi	sp,sp,48
    802000ae:	8082                	ret
    x = -xx;
    802000b0:	40a0053b          	negw	a0,a0
  if(sign && (sign = xx < 0))
    802000b4:	4885                	li	a7,1
    x = -xx;
    802000b6:	bf9d                	j	8020002c <printint+0x16>

00000000802000b8 <printstring>:
void printstring(const char* s) {
    802000b8:	1101                	addi	sp,sp,-32
    802000ba:	ec06                	sd	ra,24(sp)
    802000bc:	e822                	sd	s0,16(sp)
    802000be:	e426                	sd	s1,8(sp)
    802000c0:	1000                	addi	s0,sp,32
    802000c2:	84aa                	mv	s1,a0
    while (*s)
    802000c4:	00054503          	lbu	a0,0(a0)
    802000c8:	c909                	beqz	a0,802000da <printstring+0x22>
        consputc(*s++);
    802000ca:	0485                	addi	s1,s1,1
    802000cc:	00007097          	auipc	ra,0x7
    802000d0:	5f2080e7          	jalr	1522(ra) # 802076be <consputc>
    while (*s)
    802000d4:	0004c503          	lbu	a0,0(s1)
    802000d8:	f96d                	bnez	a0,802000ca <printstring+0x12>
}
    802000da:	60e2                	ld	ra,24(sp)
    802000dc:	6442                	ld	s0,16(sp)
    802000de:	64a2                	ld	s1,8(sp)
    802000e0:	6105                	addi	sp,sp,32
    802000e2:	8082                	ret

00000000802000e4 <backtrace>:
  for(;;)
    ;
}

void backtrace()
{
    802000e4:	7179                	addi	sp,sp,-48
    802000e6:	f406                	sd	ra,40(sp)
    802000e8:	f022                	sd	s0,32(sp)
    802000ea:	ec26                	sd	s1,24(sp)
    802000ec:	e84a                	sd	s2,16(sp)
    802000ee:	e44e                	sd	s3,8(sp)
    802000f0:	1800                	addi	s0,sp,48

static inline uint64
r_fp()
{
  uint64 x;
  asm volatile("mv %0, s0" : "=r" (x) );
    802000f2:	8922                	mv	s2,s0
  uint64 *fp = (uint64 *)r_fp();
    802000f4:	84ca                	mv	s1,s2
  uint64 *bottom = (uint64 *)PGROUNDUP((uint64)fp);
    802000f6:	6785                	lui	a5,0x1
    802000f8:	17fd                	addi	a5,a5,-1 # fff <_entry-0x801ff001>
    802000fa:	993e                	add	s2,s2,a5
    802000fc:	77fd                	lui	a5,0xfffff
    802000fe:	00f97933          	and	s2,s2,a5
  printf("backtrace:\n");
    80200102:	00009517          	auipc	a0,0x9
    80200106:	efe50513          	addi	a0,a0,-258 # 80209000 <etext>
    8020010a:	00000097          	auipc	ra,0x0
    8020010e:	084080e7          	jalr	132(ra) # 8020018e <printf>
  while (fp < bottom) {
    80200112:	0324f263          	bgeu	s1,s2,80200136 <backtrace+0x52>
    uint64 ra = *(fp - 1);
    printf("%p\n", ra - 4);
    80200116:	00009997          	auipc	s3,0x9
    8020011a:	53a98993          	addi	s3,s3,1338 # 80209650 <digits+0x2d0>
    8020011e:	ff84b583          	ld	a1,-8(s1)
    80200122:	15f1                	addi	a1,a1,-4
    80200124:	854e                	mv	a0,s3
    80200126:	00000097          	auipc	ra,0x0
    8020012a:	068080e7          	jalr	104(ra) # 8020018e <printf>
    fp = (uint64 *)*(fp - 2);
    8020012e:	ff04b483          	ld	s1,-16(s1)
  while (fp < bottom) {
    80200132:	ff24e6e3          	bltu	s1,s2,8020011e <backtrace+0x3a>
  }
}
    80200136:	70a2                	ld	ra,40(sp)
    80200138:	7402                	ld	s0,32(sp)
    8020013a:	64e2                	ld	s1,24(sp)
    8020013c:	6942                	ld	s2,16(sp)
    8020013e:	69a2                	ld	s3,8(sp)
    80200140:	6145                	addi	sp,sp,48
    80200142:	8082                	ret

0000000080200144 <panic>:
{
    80200144:	1101                	addi	sp,sp,-32
    80200146:	ec06                	sd	ra,24(sp)
    80200148:	e822                	sd	s0,16(sp)
    8020014a:	e426                	sd	s1,8(sp)
    8020014c:	1000                	addi	s0,sp,32
    8020014e:	84aa                	mv	s1,a0
  printf("panic: ");
    80200150:	00009517          	auipc	a0,0x9
    80200154:	ec050513          	addi	a0,a0,-320 # 80209010 <etext+0x10>
    80200158:	00000097          	auipc	ra,0x0
    8020015c:	036080e7          	jalr	54(ra) # 8020018e <printf>
  printf(s);
    80200160:	8526                	mv	a0,s1
    80200162:	00000097          	auipc	ra,0x0
    80200166:	02c080e7          	jalr	44(ra) # 8020018e <printf>
  printf("\n");
    8020016a:	00009517          	auipc	a0,0x9
    8020016e:	f6e50513          	addi	a0,a0,-146 # 802090d8 <etext+0xd8>
    80200172:	00000097          	auipc	ra,0x0
    80200176:	01c080e7          	jalr	28(ra) # 8020018e <printf>
  backtrace();
    8020017a:	00000097          	auipc	ra,0x0
    8020017e:	f6a080e7          	jalr	-150(ra) # 802000e4 <backtrace>
  panicked = 1; // freeze uart output from other CPUs
    80200182:	4785                	li	a5,1
    80200184:	0003c717          	auipc	a4,0x3c
    80200188:	e6f72e23          	sw	a5,-388(a4) # 8023c000 <panicked>
  for(;;)
    8020018c:	a001                	j	8020018c <panic+0x48>

000000008020018e <printf>:
{
    8020018e:	7131                	addi	sp,sp,-192
    80200190:	fc86                	sd	ra,120(sp)
    80200192:	f8a2                	sd	s0,112(sp)
    80200194:	f4a6                	sd	s1,104(sp)
    80200196:	f0ca                	sd	s2,96(sp)
    80200198:	ecce                	sd	s3,88(sp)
    8020019a:	e8d2                	sd	s4,80(sp)
    8020019c:	e4d6                	sd	s5,72(sp)
    8020019e:	e0da                	sd	s6,64(sp)
    802001a0:	fc5e                	sd	s7,56(sp)
    802001a2:	f862                	sd	s8,48(sp)
    802001a4:	f466                	sd	s9,40(sp)
    802001a6:	f06a                	sd	s10,32(sp)
    802001a8:	ec6e                	sd	s11,24(sp)
    802001aa:	0100                	addi	s0,sp,128
    802001ac:	8a2a                	mv	s4,a0
    802001ae:	e40c                	sd	a1,8(s0)
    802001b0:	e810                	sd	a2,16(s0)
    802001b2:	ec14                	sd	a3,24(s0)
    802001b4:	f018                	sd	a4,32(s0)
    802001b6:	f41c                	sd	a5,40(s0)
    802001b8:	03043823          	sd	a6,48(s0)
    802001bc:	03143c23          	sd	a7,56(s0)
  locking = pr.locking;
    802001c0:	0003cd97          	auipc	s11,0x3c
    802001c4:	e60dad83          	lw	s11,-416(s11) # 8023c020 <pr+0x18>
  if(locking)
    802001c8:	020d9b63          	bnez	s11,802001fe <printf+0x70>
  if (fmt == 0)
    802001cc:	040a0263          	beqz	s4,80200210 <printf+0x82>
  va_start(ap, fmt);
    802001d0:	00840793          	addi	a5,s0,8
    802001d4:	f8f43423          	sd	a5,-120(s0)
  for(i = 0; (c = fmt[i] & 0xff) != 0; i++){
    802001d8:	000a4503          	lbu	a0,0(s4)
    802001dc:	14050f63          	beqz	a0,8020033a <printf+0x1ac>
    802001e0:	4981                	li	s3,0
    if(c != '%'){
    802001e2:	02500a93          	li	s5,37
    switch(c){
    802001e6:	07000b93          	li	s7,112
  consputc('x');
    802001ea:	4d41                	li	s10,16
    consputc(digits[x >> (sizeof(uint64) * 8 - 4)]);
    802001ec:	00009b17          	auipc	s6,0x9
    802001f0:	194b0b13          	addi	s6,s6,404 # 80209380 <digits>
    switch(c){
    802001f4:	07300c93          	li	s9,115
    802001f8:	06400c13          	li	s8,100
    802001fc:	a82d                	j	80200236 <printf+0xa8>
    acquire(&pr.lock);
    802001fe:	0003c517          	auipc	a0,0x3c
    80200202:	e0a50513          	addi	a0,a0,-502 # 8023c008 <pr>
    80200206:	00000097          	auipc	ra,0x0
    8020020a:	4ee080e7          	jalr	1262(ra) # 802006f4 <acquire>
    8020020e:	bf7d                	j	802001cc <printf+0x3e>
    panic("null fmt");
    80200210:	00009517          	auipc	a0,0x9
    80200214:	e1050513          	addi	a0,a0,-496 # 80209020 <etext+0x20>
    80200218:	00000097          	auipc	ra,0x0
    8020021c:	f2c080e7          	jalr	-212(ra) # 80200144 <panic>
      consputc(c);
    80200220:	00007097          	auipc	ra,0x7
    80200224:	49e080e7          	jalr	1182(ra) # 802076be <consputc>
  for(i = 0; (c = fmt[i] & 0xff) != 0; i++){
    80200228:	2985                	addiw	s3,s3,1
    8020022a:	013a07b3          	add	a5,s4,s3
    8020022e:	0007c503          	lbu	a0,0(a5) # fffffffffffff000 <ebss_clear+0xffffffff7fda7000>
    80200232:	10050463          	beqz	a0,8020033a <printf+0x1ac>
    if(c != '%'){
    80200236:	ff5515e3          	bne	a0,s5,80200220 <printf+0x92>
    c = fmt[++i] & 0xff;
    8020023a:	2985                	addiw	s3,s3,1
    8020023c:	013a07b3          	add	a5,s4,s3
    80200240:	0007c783          	lbu	a5,0(a5)
    80200244:	0007849b          	sext.w	s1,a5
    if(c == 0)
    80200248:	cbed                	beqz	a5,8020033a <printf+0x1ac>
    switch(c){
    8020024a:	05778a63          	beq	a5,s7,8020029e <printf+0x110>
    8020024e:	02fbf663          	bgeu	s7,a5,8020027a <printf+0xec>
    80200252:	09978863          	beq	a5,s9,802002e2 <printf+0x154>
    80200256:	07800713          	li	a4,120
    8020025a:	0ce79563          	bne	a5,a4,80200324 <printf+0x196>
      printint(va_arg(ap, int), 16, 1);
    8020025e:	f8843783          	ld	a5,-120(s0)
    80200262:	00878713          	addi	a4,a5,8
    80200266:	f8e43423          	sd	a4,-120(s0)
    8020026a:	4605                	li	a2,1
    8020026c:	85ea                	mv	a1,s10
    8020026e:	4388                	lw	a0,0(a5)
    80200270:	00000097          	auipc	ra,0x0
    80200274:	da6080e7          	jalr	-602(ra) # 80200016 <printint>
      break;
    80200278:	bf45                	j	80200228 <printf+0x9a>
    switch(c){
    8020027a:	09578f63          	beq	a5,s5,80200318 <printf+0x18a>
    8020027e:	0b879363          	bne	a5,s8,80200324 <printf+0x196>
      printint(va_arg(ap, int), 10, 1);
    80200282:	f8843783          	ld	a5,-120(s0)
    80200286:	00878713          	addi	a4,a5,8
    8020028a:	f8e43423          	sd	a4,-120(s0)
    8020028e:	4605                	li	a2,1
    80200290:	45a9                	li	a1,10
    80200292:	4388                	lw	a0,0(a5)
    80200294:	00000097          	auipc	ra,0x0
    80200298:	d82080e7          	jalr	-638(ra) # 80200016 <printint>
      break;
    8020029c:	b771                	j	80200228 <printf+0x9a>
      printptr(va_arg(ap, uint64));
    8020029e:	f8843783          	ld	a5,-120(s0)
    802002a2:	00878713          	addi	a4,a5,8
    802002a6:	f8e43423          	sd	a4,-120(s0)
    802002aa:	0007b903          	ld	s2,0(a5)
  consputc('0');
    802002ae:	03000513          	li	a0,48
    802002b2:	00007097          	auipc	ra,0x7
    802002b6:	40c080e7          	jalr	1036(ra) # 802076be <consputc>
  consputc('x');
    802002ba:	07800513          	li	a0,120
    802002be:	00007097          	auipc	ra,0x7
    802002c2:	400080e7          	jalr	1024(ra) # 802076be <consputc>
    802002c6:	84ea                	mv	s1,s10
    consputc(digits[x >> (sizeof(uint64) * 8 - 4)]);
    802002c8:	03c95793          	srli	a5,s2,0x3c
    802002cc:	97da                	add	a5,a5,s6
    802002ce:	0007c503          	lbu	a0,0(a5)
    802002d2:	00007097          	auipc	ra,0x7
    802002d6:	3ec080e7          	jalr	1004(ra) # 802076be <consputc>
  for (i = 0; i < (sizeof(uint64) * 2); i++, x <<= 4)
    802002da:	0912                	slli	s2,s2,0x4
    802002dc:	34fd                	addiw	s1,s1,-1
    802002de:	f4ed                	bnez	s1,802002c8 <printf+0x13a>
    802002e0:	b7a1                	j	80200228 <printf+0x9a>
      if((s = va_arg(ap, char*)) == 0)
    802002e2:	f8843783          	ld	a5,-120(s0)
    802002e6:	00878713          	addi	a4,a5,8
    802002ea:	f8e43423          	sd	a4,-120(s0)
    802002ee:	6384                	ld	s1,0(a5)
    802002f0:	cc89                	beqz	s1,8020030a <printf+0x17c>
      for(; *s; s++)
    802002f2:	0004c503          	lbu	a0,0(s1)
    802002f6:	d90d                	beqz	a0,80200228 <printf+0x9a>
        consputc(*s);
    802002f8:	00007097          	auipc	ra,0x7
    802002fc:	3c6080e7          	jalr	966(ra) # 802076be <consputc>
      for(; *s; s++)
    80200300:	0485                	addi	s1,s1,1
    80200302:	0004c503          	lbu	a0,0(s1)
    80200306:	f96d                	bnez	a0,802002f8 <printf+0x16a>
    80200308:	b705                	j	80200228 <printf+0x9a>
        s = "(null)";
    8020030a:	00009497          	auipc	s1,0x9
    8020030e:	d0e48493          	addi	s1,s1,-754 # 80209018 <etext+0x18>
      for(; *s; s++)
    80200312:	02800513          	li	a0,40
    80200316:	b7cd                	j	802002f8 <printf+0x16a>
      consputc('%');
    80200318:	8556                	mv	a0,s5
    8020031a:	00007097          	auipc	ra,0x7
    8020031e:	3a4080e7          	jalr	932(ra) # 802076be <consputc>
      break;
    80200322:	b719                	j	80200228 <printf+0x9a>
      consputc('%');
    80200324:	8556                	mv	a0,s5
    80200326:	00007097          	auipc	ra,0x7
    8020032a:	398080e7          	jalr	920(ra) # 802076be <consputc>
      consputc(c);
    8020032e:	8526                	mv	a0,s1
    80200330:	00007097          	auipc	ra,0x7
    80200334:	38e080e7          	jalr	910(ra) # 802076be <consputc>
      break;
    80200338:	bdc5                	j	80200228 <printf+0x9a>
  if(locking)
    8020033a:	020d9163          	bnez	s11,8020035c <printf+0x1ce>
}
    8020033e:	70e6                	ld	ra,120(sp)
    80200340:	7446                	ld	s0,112(sp)
    80200342:	74a6                	ld	s1,104(sp)
    80200344:	7906                	ld	s2,96(sp)
    80200346:	69e6                	ld	s3,88(sp)
    80200348:	6a46                	ld	s4,80(sp)
    8020034a:	6aa6                	ld	s5,72(sp)
    8020034c:	6b06                	ld	s6,64(sp)
    8020034e:	7be2                	ld	s7,56(sp)
    80200350:	7c42                	ld	s8,48(sp)
    80200352:	7ca2                	ld	s9,40(sp)
    80200354:	7d02                	ld	s10,32(sp)
    80200356:	6de2                	ld	s11,24(sp)
    80200358:	6129                	addi	sp,sp,192
    8020035a:	8082                	ret
    release(&pr.lock);
    8020035c:	0003c517          	auipc	a0,0x3c
    80200360:	cac50513          	addi	a0,a0,-852 # 8023c008 <pr>
    80200364:	00000097          	auipc	ra,0x0
    80200368:	3e4080e7          	jalr	996(ra) # 80200748 <release>
}
    8020036c:	bfc9                	j	8020033e <printf+0x1b0>

000000008020036e <printfinit>:

void
printfinit(void)
{
    8020036e:	1141                	addi	sp,sp,-16
    80200370:	e406                	sd	ra,8(sp)
    80200372:	e022                	sd	s0,0(sp)
    80200374:	0800                	addi	s0,sp,16
  initlock(&pr.lock, "pr");
    80200376:	00009597          	auipc	a1,0x9
    8020037a:	cba58593          	addi	a1,a1,-838 # 80209030 <etext+0x30>
    8020037e:	0003c517          	auipc	a0,0x3c
    80200382:	c8a50513          	addi	a0,a0,-886 # 8023c008 <pr>
    80200386:	00000097          	auipc	ra,0x0
    8020038a:	32a080e7          	jalr	810(ra) # 802006b0 <initlock>
  pr.locking = 1;   // changed, used to be 1
    8020038e:	4785                	li	a5,1
    80200390:	0003c717          	auipc	a4,0x3c
    80200394:	c8f72823          	sw	a5,-880(a4) # 8023c020 <pr+0x18>
}
    80200398:	60a2                	ld	ra,8(sp)
    8020039a:	6402                	ld	s0,0(sp)
    8020039c:	0141                	addi	sp,sp,16
    8020039e:	8082                	ret

00000000802003a0 <print_logo>:

#ifdef QEMU
void print_logo() {
    802003a0:	1141                	addi	sp,sp,-16
    802003a2:	e406                	sd	ra,8(sp)
    802003a4:	e022                	sd	s0,0(sp)
    802003a6:	0800                	addi	s0,sp,16
    printf("  (`-.            (`-.                            .-')       ('-.    _   .-')\n");
    802003a8:	00009517          	auipc	a0,0x9
    802003ac:	c9050513          	addi	a0,a0,-880 # 80209038 <etext+0x38>
    802003b0:	00000097          	auipc	ra,0x0
    802003b4:	dde080e7          	jalr	-546(ra) # 8020018e <printf>
    printf(" ( OO ).        _(OO  )_                        .(  OO)    _(  OO)  ( '.( OO )_ \n");
    802003b8:	00009517          	auipc	a0,0x9
    802003bc:	cd050513          	addi	a0,a0,-816 # 80209088 <etext+0x88>
    802003c0:	00000097          	auipc	ra,0x0
    802003c4:	dce080e7          	jalr	-562(ra) # 8020018e <printf>
    printf("(_/.  \\_)-. ,--(_/   ,. \\  ,--.                (_)---\\_)  (,------.  ,--.   ,--.) ,--. ,--.  \n");
    802003c8:	00009517          	auipc	a0,0x9
    802003cc:	d1850513          	addi	a0,a0,-744 # 802090e0 <etext+0xe0>
    802003d0:	00000097          	auipc	ra,0x0
    802003d4:	dbe080e7          	jalr	-578(ra) # 8020018e <printf>
    printf(" \\  `.'  /  \\   \\   /(__/ /  .'       .-')     '  .-.  '   |  .---'  |   `.'   |  |  | |  |   \n");
    802003d8:	00009517          	auipc	a0,0x9
    802003dc:	d6850513          	addi	a0,a0,-664 # 80209140 <etext+0x140>
    802003e0:	00000097          	auipc	ra,0x0
    802003e4:	dae080e7          	jalr	-594(ra) # 8020018e <printf>
    printf("  \\     /\\   \\   \\ /   / .  / -.    _(  OO)   ,|  | |  |   |  |      |         |  |  | | .-')\n");
    802003e8:	00009517          	auipc	a0,0x9
    802003ec:	db850513          	addi	a0,a0,-584 # 802091a0 <etext+0x1a0>
    802003f0:	00000097          	auipc	ra,0x0
    802003f4:	d9e080e7          	jalr	-610(ra) # 8020018e <printf>
    printf("   \\   \\ |    \\   '   /, | .-.  '  (,------. (_|  | |  |  (|  '--.   |  |'.'|  |  |  |_|( OO )\n");
    802003f8:	00009517          	auipc	a0,0x9
    802003fc:	e0850513          	addi	a0,a0,-504 # 80209200 <etext+0x200>
    80200400:	00000097          	auipc	ra,0x0
    80200404:	d8e080e7          	jalr	-626(ra) # 8020018e <printf>
    printf("  .'    \\_)    \\     /__)' \\  |  |  '------'   |  | |  |   |  .--'   |  |   |  |  |  | | `-' /\n");
    80200408:	00009517          	auipc	a0,0x9
    8020040c:	e5850513          	addi	a0,a0,-424 # 80209260 <etext+0x260>
    80200410:	00000097          	auipc	ra,0x0
    80200414:	d7e080e7          	jalr	-642(ra) # 8020018e <printf>
    printf(" /  .'.  \\      \\   /    \\  `'  /              '  '-'  '-. |  `---.  |  |   |  | ('  '-'(_.-'\n");
    80200418:	00009517          	auipc	a0,0x9
    8020041c:	ea850513          	addi	a0,a0,-344 # 802092c0 <etext+0x2c0>
    80200420:	00000097          	auipc	ra,0x0
    80200424:	d6e080e7          	jalr	-658(ra) # 8020018e <printf>
    printf("'--'   '--'      `-'      `----'                `-----'--' `------'  `--'   `--'   `-----'\n");
    80200428:	00009517          	auipc	a0,0x9
    8020042c:	ef850513          	addi	a0,a0,-264 # 80209320 <etext+0x320>
    80200430:	00000097          	auipc	ra,0x0
    80200434:	d5e080e7          	jalr	-674(ra) # 8020018e <printf>
}
    80200438:	60a2                	ld	ra,8(sp)
    8020043a:	6402                	ld	s0,0(sp)
    8020043c:	0141                	addi	sp,sp,16
    8020043e:	8082                	ret

0000000080200440 <kfree>:
// which normally should have been returned by a
// call to kalloc().  (The exception is when
// initializing the allocator; see kinit above.)
void
kfree(void *pa)
{
    80200440:	1101                	addi	sp,sp,-32
    80200442:	ec06                	sd	ra,24(sp)
    80200444:	e822                	sd	s0,16(sp)
    80200446:	e426                	sd	s1,8(sp)
    80200448:	e04a                	sd	s2,0(sp)
    8020044a:	1000                	addi	s0,sp,32
  struct run *r;
  
  if(((uint64)pa % PGSIZE) != 0 || (char*)pa < kernel_end || (uint64)pa >= PHYSTOP)
    8020044c:	03451793          	slli	a5,a0,0x34
    80200450:	e3ad                	bnez	a5,802004b2 <kfree+0x72>
    80200452:	84aa                	mv	s1,a0
    80200454:	00033797          	auipc	a5,0x33
    80200458:	eac7b783          	ld	a5,-340(a5) # 80233300 <_GLOBAL_OFFSET_TABLE_+0x28>
    8020045c:	04f56b63          	bltu	a0,a5,802004b2 <kfree+0x72>
    80200460:	40300793          	li	a5,1027
    80200464:	07d6                	slli	a5,a5,0x15
    80200466:	04f57663          	bgeu	a0,a5,802004b2 <kfree+0x72>
    panic("kfree");

  // Fill with junk to catch dangling refs.
  memset(pa, 1, PGSIZE);
    8020046a:	6605                	lui	a2,0x1
    8020046c:	4585                	li	a1,1
    8020046e:	00000097          	auipc	ra,0x0
    80200472:	322080e7          	jalr	802(ra) # 80200790 <memset>

  r = (struct run*)pa;

  acquire(&kmem.lock);
    80200476:	0003c917          	auipc	s2,0x3c
    8020047a:	bb290913          	addi	s2,s2,-1102 # 8023c028 <kmem>
    8020047e:	854a                	mv	a0,s2
    80200480:	00000097          	auipc	ra,0x0
    80200484:	274080e7          	jalr	628(ra) # 802006f4 <acquire>
  r->next = kmem.freelist;
    80200488:	01893783          	ld	a5,24(s2)
    8020048c:	e09c                	sd	a5,0(s1)
  kmem.freelist = r;
    8020048e:	00993c23          	sd	s1,24(s2)
  kmem.npage++;
    80200492:	02093783          	ld	a5,32(s2)
    80200496:	0785                	addi	a5,a5,1
    80200498:	02f93023          	sd	a5,32(s2)
  release(&kmem.lock);
    8020049c:	854a                	mv	a0,s2
    8020049e:	00000097          	auipc	ra,0x0
    802004a2:	2aa080e7          	jalr	682(ra) # 80200748 <release>
}
    802004a6:	60e2                	ld	ra,24(sp)
    802004a8:	6442                	ld	s0,16(sp)
    802004aa:	64a2                	ld	s1,8(sp)
    802004ac:	6902                	ld	s2,0(sp)
    802004ae:	6105                	addi	sp,sp,32
    802004b0:	8082                	ret
    panic("kfree");
    802004b2:	00009517          	auipc	a0,0x9
    802004b6:	ee650513          	addi	a0,a0,-282 # 80209398 <digits+0x18>
    802004ba:	00000097          	auipc	ra,0x0
    802004be:	c8a080e7          	jalr	-886(ra) # 80200144 <panic>

00000000802004c2 <freerange>:
{
    802004c2:	7179                	addi	sp,sp,-48
    802004c4:	f406                	sd	ra,40(sp)
    802004c6:	f022                	sd	s0,32(sp)
    802004c8:	ec26                	sd	s1,24(sp)
    802004ca:	e84a                	sd	s2,16(sp)
    802004cc:	e44e                	sd	s3,8(sp)
    802004ce:	e052                	sd	s4,0(sp)
    802004d0:	1800                	addi	s0,sp,48
  p = (char*)PGROUNDUP((uint64)pa_start);
    802004d2:	6785                	lui	a5,0x1
    802004d4:	fff78713          	addi	a4,a5,-1 # fff <_entry-0x801ff001>
    802004d8:	00e504b3          	add	s1,a0,a4
    802004dc:	777d                	lui	a4,0xfffff
    802004de:	8cf9                	and	s1,s1,a4
  for(; p + PGSIZE <= (char*)pa_end; p += PGSIZE)
    802004e0:	94be                	add	s1,s1,a5
    802004e2:	0095ee63          	bltu	a1,s1,802004fe <freerange+0x3c>
    802004e6:	892e                	mv	s2,a1
    kfree(p);
    802004e8:	7a7d                	lui	s4,0xfffff
  for(; p + PGSIZE <= (char*)pa_end; p += PGSIZE)
    802004ea:	6985                	lui	s3,0x1
    kfree(p);
    802004ec:	01448533          	add	a0,s1,s4
    802004f0:	00000097          	auipc	ra,0x0
    802004f4:	f50080e7          	jalr	-176(ra) # 80200440 <kfree>
  for(; p + PGSIZE <= (char*)pa_end; p += PGSIZE)
    802004f8:	94ce                	add	s1,s1,s3
    802004fa:	fe9979e3          	bgeu	s2,s1,802004ec <freerange+0x2a>
}
    802004fe:	70a2                	ld	ra,40(sp)
    80200500:	7402                	ld	s0,32(sp)
    80200502:	64e2                	ld	s1,24(sp)
    80200504:	6942                	ld	s2,16(sp)
    80200506:	69a2                	ld	s3,8(sp)
    80200508:	6a02                	ld	s4,0(sp)
    8020050a:	6145                	addi	sp,sp,48
    8020050c:	8082                	ret

000000008020050e <kinit>:
{
    8020050e:	1101                	addi	sp,sp,-32
    80200510:	ec06                	sd	ra,24(sp)
    80200512:	e822                	sd	s0,16(sp)
    80200514:	e426                	sd	s1,8(sp)
    80200516:	1000                	addi	s0,sp,32
  initlock(&kmem.lock, "kmem");
    80200518:	0003c497          	auipc	s1,0x3c
    8020051c:	b1048493          	addi	s1,s1,-1264 # 8023c028 <kmem>
    80200520:	00009597          	auipc	a1,0x9
    80200524:	e8058593          	addi	a1,a1,-384 # 802093a0 <digits+0x20>
    80200528:	8526                	mv	a0,s1
    8020052a:	00000097          	auipc	ra,0x0
    8020052e:	186080e7          	jalr	390(ra) # 802006b0 <initlock>
  kmem.freelist = 0;
    80200532:	0004bc23          	sd	zero,24(s1)
  kmem.npage = 0;
    80200536:	0204b023          	sd	zero,32(s1)
  freerange(kernel_end, (void*)PHYSTOP);
    8020053a:	40300493          	li	s1,1027
    8020053e:	01549593          	slli	a1,s1,0x15
    80200542:	00033517          	auipc	a0,0x33
    80200546:	dbe53503          	ld	a0,-578(a0) # 80233300 <_GLOBAL_OFFSET_TABLE_+0x28>
    8020054a:	00000097          	auipc	ra,0x0
    8020054e:	f78080e7          	jalr	-136(ra) # 802004c2 <freerange>
  printf("kernel_end: %p, phystop: %p\n", kernel_end, (void*)PHYSTOP);
    80200552:	01549613          	slli	a2,s1,0x15
    80200556:	00033597          	auipc	a1,0x33
    8020055a:	daa5b583          	ld	a1,-598(a1) # 80233300 <_GLOBAL_OFFSET_TABLE_+0x28>
    8020055e:	00009517          	auipc	a0,0x9
    80200562:	e4a50513          	addi	a0,a0,-438 # 802093a8 <digits+0x28>
    80200566:	00000097          	auipc	ra,0x0
    8020056a:	c28080e7          	jalr	-984(ra) # 8020018e <printf>
  printf("kinit\n");
    8020056e:	00009517          	auipc	a0,0x9
    80200572:	e5a50513          	addi	a0,a0,-422 # 802093c8 <digits+0x48>
    80200576:	00000097          	auipc	ra,0x0
    8020057a:	c18080e7          	jalr	-1000(ra) # 8020018e <printf>
}
    8020057e:	60e2                	ld	ra,24(sp)
    80200580:	6442                	ld	s0,16(sp)
    80200582:	64a2                	ld	s1,8(sp)
    80200584:	6105                	addi	sp,sp,32
    80200586:	8082                	ret

0000000080200588 <kalloc>:
// Allocate one 4096-byte page of physical memory.
// Returns a pointer that the kernel can use.
// Returns 0 if the memory cannot be allocated.
void *
kalloc(void)
{
    80200588:	1101                	addi	sp,sp,-32
    8020058a:	ec06                	sd	ra,24(sp)
    8020058c:	e822                	sd	s0,16(sp)
    8020058e:	e426                	sd	s1,8(sp)
    80200590:	1000                	addi	s0,sp,32
  struct run *r;

  acquire(&kmem.lock);
    80200592:	0003c497          	auipc	s1,0x3c
    80200596:	a9648493          	addi	s1,s1,-1386 # 8023c028 <kmem>
    8020059a:	8526                	mv	a0,s1
    8020059c:	00000097          	auipc	ra,0x0
    802005a0:	158080e7          	jalr	344(ra) # 802006f4 <acquire>
  r = kmem.freelist;
    802005a4:	6c84                	ld	s1,24(s1)
  if(r) {
    802005a6:	c89d                	beqz	s1,802005dc <kalloc+0x54>
    kmem.freelist = r->next;
    802005a8:	609c                	ld	a5,0(s1)
    802005aa:	0003c517          	auipc	a0,0x3c
    802005ae:	a7e50513          	addi	a0,a0,-1410 # 8023c028 <kmem>
    802005b2:	ed1c                	sd	a5,24(a0)
    kmem.npage--;
    802005b4:	711c                	ld	a5,32(a0)
    802005b6:	17fd                	addi	a5,a5,-1
    802005b8:	f11c                	sd	a5,32(a0)
  }
  release(&kmem.lock);
    802005ba:	00000097          	auipc	ra,0x0
    802005be:	18e080e7          	jalr	398(ra) # 80200748 <release>

  if(r)
    memset((char*)r, 5, PGSIZE); // fill with junk
    802005c2:	6605                	lui	a2,0x1
    802005c4:	4595                	li	a1,5
    802005c6:	8526                	mv	a0,s1
    802005c8:	00000097          	auipc	ra,0x0
    802005cc:	1c8080e7          	jalr	456(ra) # 80200790 <memset>
  return (void*)r;
}
    802005d0:	8526                	mv	a0,s1
    802005d2:	60e2                	ld	ra,24(sp)
    802005d4:	6442                	ld	s0,16(sp)
    802005d6:	64a2                	ld	s1,8(sp)
    802005d8:	6105                	addi	sp,sp,32
    802005da:	8082                	ret
  release(&kmem.lock);
    802005dc:	0003c517          	auipc	a0,0x3c
    802005e0:	a4c50513          	addi	a0,a0,-1460 # 8023c028 <kmem>
    802005e4:	00000097          	auipc	ra,0x0
    802005e8:	164080e7          	jalr	356(ra) # 80200748 <release>
  if(r)
    802005ec:	b7d5                	j	802005d0 <kalloc+0x48>

00000000802005ee <freemem_amount>:

uint64
freemem_amount(void)
{
    802005ee:	1141                	addi	sp,sp,-16
    802005f0:	e422                	sd	s0,8(sp)
    802005f2:	0800                	addi	s0,sp,16
  return kmem.npage << PGSHIFT;
}
    802005f4:	0003c517          	auipc	a0,0x3c
    802005f8:	a5453503          	ld	a0,-1452(a0) # 8023c048 <kmem+0x20>
    802005fc:	0532                	slli	a0,a0,0xc
    802005fe:	6422                	ld	s0,8(sp)
    80200600:	0141                	addi	sp,sp,16
    80200602:	8082                	ret

0000000080200604 <push_off>:
// it takes two pop_off()s to undo two push_off()s.  Also, if interrupts
// are initially off, then push_off, pop_off leaves them off.

void
push_off(void)
{
    80200604:	1101                	addi	sp,sp,-32
    80200606:	ec06                	sd	ra,24(sp)
    80200608:	e822                	sd	s0,16(sp)
    8020060a:	e426                	sd	s1,8(sp)
    8020060c:	1000                	addi	s0,sp,32
  asm volatile("csrr %0, sstatus" : "=r" (x) );
    8020060e:	100024f3          	csrr	s1,sstatus
    80200612:	100027f3          	csrr	a5,sstatus
  w_sstatus(r_sstatus() & ~SSTATUS_SIE);
    80200616:	9bf5                	andi	a5,a5,-3
  asm volatile("csrw sstatus, %0" : : "r" (x));
    80200618:	10079073          	csrw	sstatus,a5
  int old = intr_get();

  intr_off();
  //printf("\e[32mpush_off()\e[0m: cpuid(): %d\n", cpuid());
  if(mycpu()->noff == 0)
    8020061c:	00001097          	auipc	ra,0x1
    80200620:	4a0080e7          	jalr	1184(ra) # 80201abc <mycpu>
    80200624:	5d3c                	lw	a5,120(a0)
    80200626:	cf89                	beqz	a5,80200640 <push_off+0x3c>
    mycpu()->intena = old;
  mycpu()->noff += 1;
    80200628:	00001097          	auipc	ra,0x1
    8020062c:	494080e7          	jalr	1172(ra) # 80201abc <mycpu>
    80200630:	5d3c                	lw	a5,120(a0)
    80200632:	2785                	addiw	a5,a5,1
    80200634:	dd3c                	sw	a5,120(a0)
}
    80200636:	60e2                	ld	ra,24(sp)
    80200638:	6442                	ld	s0,16(sp)
    8020063a:	64a2                	ld	s1,8(sp)
    8020063c:	6105                	addi	sp,sp,32
    8020063e:	8082                	ret
    mycpu()->intena = old;
    80200640:	00001097          	auipc	ra,0x1
    80200644:	47c080e7          	jalr	1148(ra) # 80201abc <mycpu>
  return (x & SSTATUS_SIE) != 0;
    80200648:	8085                	srli	s1,s1,0x1
    8020064a:	8885                	andi	s1,s1,1
    8020064c:	dd64                	sw	s1,124(a0)
    8020064e:	bfe9                	j	80200628 <push_off+0x24>

0000000080200650 <pop_off>:

void
pop_off(void)
{
    80200650:	1141                	addi	sp,sp,-16
    80200652:	e406                	sd	ra,8(sp)
    80200654:	e022                	sd	s0,0(sp)
    80200656:	0800                	addi	s0,sp,16
  struct cpu *c = mycpu();
    80200658:	00001097          	auipc	ra,0x1
    8020065c:	464080e7          	jalr	1124(ra) # 80201abc <mycpu>
  asm volatile("csrr %0, sstatus" : "=r" (x) );
    80200660:	100027f3          	csrr	a5,sstatus
  return (x & SSTATUS_SIE) != 0;
    80200664:	8b89                	andi	a5,a5,2

  //printf("\e[31mpop_off()\e[0m: cpuid(): %d\n", cpuid());
  if(intr_get())
    80200666:	e78d                	bnez	a5,80200690 <pop_off+0x40>
    panic("pop_off - interruptible");
  if(c->noff < 1) {
    80200668:	5d3c                	lw	a5,120(a0)
    8020066a:	02f05b63          	blez	a5,802006a0 <pop_off+0x50>
    //printf("c->noff = %d\n", c->noff);
    panic("pop_off");
  }
  //printf("c->noff: %d\n", c->noff);
  //printf("c: %x\n", c);
  c->noff -= 1;
    8020066e:	37fd                	addiw	a5,a5,-1
    80200670:	0007871b          	sext.w	a4,a5
    80200674:	dd3c                	sw	a5,120(a0)
  if(c->noff == 0 && c->intena)
    80200676:	eb09                	bnez	a4,80200688 <pop_off+0x38>
    80200678:	5d7c                	lw	a5,124(a0)
    8020067a:	c799                	beqz	a5,80200688 <pop_off+0x38>
  asm volatile("csrr %0, sstatus" : "=r" (x) );
    8020067c:	100027f3          	csrr	a5,sstatus
  w_sstatus(r_sstatus() | SSTATUS_SIE);
    80200680:	0027e793          	ori	a5,a5,2
  asm volatile("csrw sstatus, %0" : : "r" (x));
    80200684:	10079073          	csrw	sstatus,a5
    intr_on();
}
    80200688:	60a2                	ld	ra,8(sp)
    8020068a:	6402                	ld	s0,0(sp)
    8020068c:	0141                	addi	sp,sp,16
    8020068e:	8082                	ret
    panic("pop_off - interruptible");
    80200690:	00009517          	auipc	a0,0x9
    80200694:	d4050513          	addi	a0,a0,-704 # 802093d0 <digits+0x50>
    80200698:	00000097          	auipc	ra,0x0
    8020069c:	aac080e7          	jalr	-1364(ra) # 80200144 <panic>
    panic("pop_off");
    802006a0:	00009517          	auipc	a0,0x9
    802006a4:	d4850513          	addi	a0,a0,-696 # 802093e8 <digits+0x68>
    802006a8:	00000097          	auipc	ra,0x0
    802006ac:	a9c080e7          	jalr	-1380(ra) # 80200144 <panic>

00000000802006b0 <initlock>:
#include "include/intr.h"
#include "include/printf.h"

void
initlock(struct spinlock *lk, char *name)
{
    802006b0:	1141                	addi	sp,sp,-16
    802006b2:	e422                	sd	s0,8(sp)
    802006b4:	0800                	addi	s0,sp,16
  lk->name = name;
    802006b6:	e50c                	sd	a1,8(a0)
  lk->locked = 0;
    802006b8:	00052023          	sw	zero,0(a0)
  lk->cpu = 0;
    802006bc:	00053823          	sd	zero,16(a0)
}
    802006c0:	6422                	ld	s0,8(sp)
    802006c2:	0141                	addi	sp,sp,16
    802006c4:	8082                	ret

00000000802006c6 <holding>:
// Interrupts must be off.
int
holding(struct spinlock *lk)
{
  int r;
  r = (lk->locked && lk->cpu == mycpu());
    802006c6:	411c                	lw	a5,0(a0)
    802006c8:	e399                	bnez	a5,802006ce <holding+0x8>
    802006ca:	4501                	li	a0,0
  return r;
}
    802006cc:	8082                	ret
{
    802006ce:	1101                	addi	sp,sp,-32
    802006d0:	ec06                	sd	ra,24(sp)
    802006d2:	e822                	sd	s0,16(sp)
    802006d4:	e426                	sd	s1,8(sp)
    802006d6:	1000                	addi	s0,sp,32
  r = (lk->locked && lk->cpu == mycpu());
    802006d8:	6904                	ld	s1,16(a0)
    802006da:	00001097          	auipc	ra,0x1
    802006de:	3e2080e7          	jalr	994(ra) # 80201abc <mycpu>
    802006e2:	40a48533          	sub	a0,s1,a0
    802006e6:	00153513          	seqz	a0,a0
}
    802006ea:	60e2                	ld	ra,24(sp)
    802006ec:	6442                	ld	s0,16(sp)
    802006ee:	64a2                	ld	s1,8(sp)
    802006f0:	6105                	addi	sp,sp,32
    802006f2:	8082                	ret

00000000802006f4 <acquire>:
{
    802006f4:	1101                	addi	sp,sp,-32
    802006f6:	ec06                	sd	ra,24(sp)
    802006f8:	e822                	sd	s0,16(sp)
    802006fa:	e426                	sd	s1,8(sp)
    802006fc:	1000                	addi	s0,sp,32
    802006fe:	84aa                	mv	s1,a0
  push_off(); // disable interrupts to avoid deadlock.
    80200700:	00000097          	auipc	ra,0x0
    80200704:	f04080e7          	jalr	-252(ra) # 80200604 <push_off>
  if(holding(lk))
    80200708:	8526                	mv	a0,s1
    8020070a:	00000097          	auipc	ra,0x0
    8020070e:	fbc080e7          	jalr	-68(ra) # 802006c6 <holding>
  while(__sync_lock_test_and_set(&lk->locked, 1) != 0)
    80200712:	4705                	li	a4,1
  if(holding(lk))
    80200714:	e115                	bnez	a0,80200738 <acquire+0x44>
  while(__sync_lock_test_and_set(&lk->locked, 1) != 0)
    80200716:	87ba                	mv	a5,a4
    80200718:	0cf4a7af          	amoswap.w.aq	a5,a5,(s1)
    8020071c:	2781                	sext.w	a5,a5
    8020071e:	ffe5                	bnez	a5,80200716 <acquire+0x22>
  __sync_synchronize();
    80200720:	0ff0000f          	fence
  lk->cpu = mycpu();
    80200724:	00001097          	auipc	ra,0x1
    80200728:	398080e7          	jalr	920(ra) # 80201abc <mycpu>
    8020072c:	e888                	sd	a0,16(s1)
}
    8020072e:	60e2                	ld	ra,24(sp)
    80200730:	6442                	ld	s0,16(sp)
    80200732:	64a2                	ld	s1,8(sp)
    80200734:	6105                	addi	sp,sp,32
    80200736:	8082                	ret
    panic("acquire");
    80200738:	00009517          	auipc	a0,0x9
    8020073c:	cb850513          	addi	a0,a0,-840 # 802093f0 <digits+0x70>
    80200740:	00000097          	auipc	ra,0x0
    80200744:	a04080e7          	jalr	-1532(ra) # 80200144 <panic>

0000000080200748 <release>:
{
    80200748:	1101                	addi	sp,sp,-32
    8020074a:	ec06                	sd	ra,24(sp)
    8020074c:	e822                	sd	s0,16(sp)
    8020074e:	e426                	sd	s1,8(sp)
    80200750:	1000                	addi	s0,sp,32
    80200752:	84aa                	mv	s1,a0
  if(!holding(lk))
    80200754:	00000097          	auipc	ra,0x0
    80200758:	f72080e7          	jalr	-142(ra) # 802006c6 <holding>
    8020075c:	c115                	beqz	a0,80200780 <release+0x38>
  lk->cpu = 0;
    8020075e:	0004b823          	sd	zero,16(s1)
  __sync_synchronize();
    80200762:	0ff0000f          	fence
  __sync_lock_release(&lk->locked);
    80200766:	0f50000f          	fence	iorw,ow
    8020076a:	0804a02f          	amoswap.w	zero,zero,(s1)
  pop_off();
    8020076e:	00000097          	auipc	ra,0x0
    80200772:	ee2080e7          	jalr	-286(ra) # 80200650 <pop_off>
}
    80200776:	60e2                	ld	ra,24(sp)
    80200778:	6442                	ld	s0,16(sp)
    8020077a:	64a2                	ld	s1,8(sp)
    8020077c:	6105                	addi	sp,sp,32
    8020077e:	8082                	ret
    panic("release");
    80200780:	00009517          	auipc	a0,0x9
    80200784:	c7850513          	addi	a0,a0,-904 # 802093f8 <digits+0x78>
    80200788:	00000097          	auipc	ra,0x0
    8020078c:	9bc080e7          	jalr	-1604(ra) # 80200144 <panic>

0000000080200790 <memset>:
#include "include/types.h"

void*
memset(void *dst, int c, uint n)
{
    80200790:	1141                	addi	sp,sp,-16
    80200792:	e422                	sd	s0,8(sp)
    80200794:	0800                	addi	s0,sp,16
  char *cdst = (char *) dst;
  int i;
  for(i = 0; i < n; i++){
    80200796:	ca19                	beqz	a2,802007ac <memset+0x1c>
    80200798:	87aa                	mv	a5,a0
    8020079a:	1602                	slli	a2,a2,0x20
    8020079c:	9201                	srli	a2,a2,0x20
    8020079e:	00a60733          	add	a4,a2,a0
    cdst[i] = c;
    802007a2:	00b78023          	sb	a1,0(a5)
  for(i = 0; i < n; i++){
    802007a6:	0785                	addi	a5,a5,1
    802007a8:	fee79de3          	bne	a5,a4,802007a2 <memset+0x12>
  }
  return dst;
}
    802007ac:	6422                	ld	s0,8(sp)
    802007ae:	0141                	addi	sp,sp,16
    802007b0:	8082                	ret

00000000802007b2 <memcmp>:

int
memcmp(const void *v1, const void *v2, uint n)
{
    802007b2:	1141                	addi	sp,sp,-16
    802007b4:	e422                	sd	s0,8(sp)
    802007b6:	0800                	addi	s0,sp,16
  const uchar *s1, *s2;

  s1 = v1;
  s2 = v2;
  while(n-- > 0){
    802007b8:	ca05                	beqz	a2,802007e8 <memcmp+0x36>
    802007ba:	fff6069b          	addiw	a3,a2,-1 # fff <_entry-0x801ff001>
    802007be:	1682                	slli	a3,a3,0x20
    802007c0:	9281                	srli	a3,a3,0x20
    802007c2:	0685                	addi	a3,a3,1
    802007c4:	96aa                	add	a3,a3,a0
    if(*s1 != *s2)
    802007c6:	00054783          	lbu	a5,0(a0)
    802007ca:	0005c703          	lbu	a4,0(a1)
    802007ce:	00e79863          	bne	a5,a4,802007de <memcmp+0x2c>
      return *s1 - *s2;
    s1++, s2++;
    802007d2:	0505                	addi	a0,a0,1
    802007d4:	0585                	addi	a1,a1,1
  while(n-- > 0){
    802007d6:	fed518e3          	bne	a0,a3,802007c6 <memcmp+0x14>
  }

  return 0;
    802007da:	4501                	li	a0,0
    802007dc:	a019                	j	802007e2 <memcmp+0x30>
      return *s1 - *s2;
    802007de:	40e7853b          	subw	a0,a5,a4
}
    802007e2:	6422                	ld	s0,8(sp)
    802007e4:	0141                	addi	sp,sp,16
    802007e6:	8082                	ret
  return 0;
    802007e8:	4501                	li	a0,0
    802007ea:	bfe5                	j	802007e2 <memcmp+0x30>

00000000802007ec <memmove>:

void*
memmove(void *dst, const void *src, uint n)
{
    802007ec:	1141                	addi	sp,sp,-16
    802007ee:	e422                	sd	s0,8(sp)
    802007f0:	0800                	addi	s0,sp,16
  const char *s;
  char *d;

  s = src;
  d = dst;
  if(s < d && s + n > d){
    802007f2:	02a5e563          	bltu	a1,a0,8020081c <memmove+0x30>
    s += n;
    d += n;
    while(n-- > 0)
      *--d = *--s;
  } else
    while(n-- > 0)
    802007f6:	fff6069b          	addiw	a3,a2,-1
    802007fa:	ce11                	beqz	a2,80200816 <memmove+0x2a>
    802007fc:	1682                	slli	a3,a3,0x20
    802007fe:	9281                	srli	a3,a3,0x20
    80200800:	0685                	addi	a3,a3,1
    80200802:	96ae                	add	a3,a3,a1
    80200804:	87aa                	mv	a5,a0
      *d++ = *s++;
    80200806:	0585                	addi	a1,a1,1
    80200808:	0785                	addi	a5,a5,1
    8020080a:	fff5c703          	lbu	a4,-1(a1)
    8020080e:	fee78fa3          	sb	a4,-1(a5)
    while(n-- > 0)
    80200812:	fed59ae3          	bne	a1,a3,80200806 <memmove+0x1a>

  return dst;
}
    80200816:	6422                	ld	s0,8(sp)
    80200818:	0141                	addi	sp,sp,16
    8020081a:	8082                	ret
  if(s < d && s + n > d){
    8020081c:	02061713          	slli	a4,a2,0x20
    80200820:	9301                	srli	a4,a4,0x20
    80200822:	00e587b3          	add	a5,a1,a4
    80200826:	fcf578e3          	bgeu	a0,a5,802007f6 <memmove+0xa>
    d += n;
    8020082a:	972a                	add	a4,a4,a0
    while(n-- > 0)
    8020082c:	fff6069b          	addiw	a3,a2,-1
    80200830:	d27d                	beqz	a2,80200816 <memmove+0x2a>
    80200832:	02069613          	slli	a2,a3,0x20
    80200836:	9201                	srli	a2,a2,0x20
    80200838:	fff64613          	not	a2,a2
    8020083c:	963e                	add	a2,a2,a5
      *--d = *--s;
    8020083e:	17fd                	addi	a5,a5,-1
    80200840:	177d                	addi	a4,a4,-1 # ffffffffffffefff <ebss_clear+0xffffffff7fda6fff>
    80200842:	0007c683          	lbu	a3,0(a5)
    80200846:	00d70023          	sb	a3,0(a4)
    while(n-- > 0)
    8020084a:	fef61ae3          	bne	a2,a5,8020083e <memmove+0x52>
    8020084e:	b7e1                	j	80200816 <memmove+0x2a>

0000000080200850 <memcpy>:

// memcpy exists to placate GCC.  Use memmove.
void*
memcpy(void *dst, const void *src, uint n)
{
    80200850:	1141                	addi	sp,sp,-16
    80200852:	e406                	sd	ra,8(sp)
    80200854:	e022                	sd	s0,0(sp)
    80200856:	0800                	addi	s0,sp,16
  return memmove(dst, src, n);
    80200858:	00000097          	auipc	ra,0x0
    8020085c:	f94080e7          	jalr	-108(ra) # 802007ec <memmove>
}
    80200860:	60a2                	ld	ra,8(sp)
    80200862:	6402                	ld	s0,0(sp)
    80200864:	0141                	addi	sp,sp,16
    80200866:	8082                	ret

0000000080200868 <strncmp>:

int
strncmp(const char *p, const char *q, uint n)
{
    80200868:	1141                	addi	sp,sp,-16
    8020086a:	e422                	sd	s0,8(sp)
    8020086c:	0800                	addi	s0,sp,16
  while(n > 0 && *p && *p == *q)
    8020086e:	ce11                	beqz	a2,8020088a <strncmp+0x22>
    80200870:	00054783          	lbu	a5,0(a0)
    80200874:	cf89                	beqz	a5,8020088e <strncmp+0x26>
    80200876:	0005c703          	lbu	a4,0(a1)
    8020087a:	00f71a63          	bne	a4,a5,8020088e <strncmp+0x26>
    n--, p++, q++;
    8020087e:	367d                	addiw	a2,a2,-1
    80200880:	0505                	addi	a0,a0,1
    80200882:	0585                	addi	a1,a1,1
  while(n > 0 && *p && *p == *q)
    80200884:	f675                	bnez	a2,80200870 <strncmp+0x8>
  if(n == 0)
    return 0;
    80200886:	4501                	li	a0,0
    80200888:	a809                	j	8020089a <strncmp+0x32>
    8020088a:	4501                	li	a0,0
    8020088c:	a039                	j	8020089a <strncmp+0x32>
  if(n == 0)
    8020088e:	ca09                	beqz	a2,802008a0 <strncmp+0x38>
  return (uchar)*p - (uchar)*q;
    80200890:	00054503          	lbu	a0,0(a0)
    80200894:	0005c783          	lbu	a5,0(a1)
    80200898:	9d1d                	subw	a0,a0,a5
}
    8020089a:	6422                	ld	s0,8(sp)
    8020089c:	0141                	addi	sp,sp,16
    8020089e:	8082                	ret
    return 0;
    802008a0:	4501                	li	a0,0
    802008a2:	bfe5                	j	8020089a <strncmp+0x32>

00000000802008a4 <strncpy>:

char*
strncpy(char *s, const char *t, int n)
{
    802008a4:	1141                	addi	sp,sp,-16
    802008a6:	e422                	sd	s0,8(sp)
    802008a8:	0800                	addi	s0,sp,16
  char *os;

  os = s;
  while(n-- > 0 && (*s++ = *t++) != 0)
    802008aa:	872a                	mv	a4,a0
    802008ac:	8832                	mv	a6,a2
    802008ae:	367d                	addiw	a2,a2,-1
    802008b0:	01005963          	blez	a6,802008c2 <strncpy+0x1e>
    802008b4:	0705                	addi	a4,a4,1
    802008b6:	0005c783          	lbu	a5,0(a1)
    802008ba:	fef70fa3          	sb	a5,-1(a4)
    802008be:	0585                	addi	a1,a1,1
    802008c0:	f7f5                	bnez	a5,802008ac <strncpy+0x8>
    ;
  while(n-- > 0)
    802008c2:	86ba                	mv	a3,a4
    802008c4:	00c05c63          	blez	a2,802008dc <strncpy+0x38>
    *s++ = 0;
    802008c8:	0685                	addi	a3,a3,1
    802008ca:	fe068fa3          	sb	zero,-1(a3)
  while(n-- > 0)
    802008ce:	40d707bb          	subw	a5,a4,a3
    802008d2:	37fd                	addiw	a5,a5,-1
    802008d4:	010787bb          	addw	a5,a5,a6
    802008d8:	fef048e3          	bgtz	a5,802008c8 <strncpy+0x24>
  return os;
}
    802008dc:	6422                	ld	s0,8(sp)
    802008de:	0141                	addi	sp,sp,16
    802008e0:	8082                	ret

00000000802008e2 <safestrcpy>:

// Like strncpy but guaranteed to NUL-terminate.
char*
safestrcpy(char *s, const char *t, int n)
{
    802008e2:	1141                	addi	sp,sp,-16
    802008e4:	e422                	sd	s0,8(sp)
    802008e6:	0800                	addi	s0,sp,16
  char *os;

  os = s;
  if(n <= 0)
    802008e8:	02c05363          	blez	a2,8020090e <safestrcpy+0x2c>
    802008ec:	fff6069b          	addiw	a3,a2,-1
    802008f0:	1682                	slli	a3,a3,0x20
    802008f2:	9281                	srli	a3,a3,0x20
    802008f4:	96ae                	add	a3,a3,a1
    802008f6:	87aa                	mv	a5,a0
    return os;
  while(--n > 0 && (*s++ = *t++) != 0)
    802008f8:	00d58963          	beq	a1,a3,8020090a <safestrcpy+0x28>
    802008fc:	0585                	addi	a1,a1,1
    802008fe:	0785                	addi	a5,a5,1
    80200900:	fff5c703          	lbu	a4,-1(a1)
    80200904:	fee78fa3          	sb	a4,-1(a5)
    80200908:	fb65                	bnez	a4,802008f8 <safestrcpy+0x16>
    ;
  *s = 0;
    8020090a:	00078023          	sb	zero,0(a5)
  return os;
}
    8020090e:	6422                	ld	s0,8(sp)
    80200910:	0141                	addi	sp,sp,16
    80200912:	8082                	ret

0000000080200914 <strlen>:

int
strlen(const char *s)
{
    80200914:	1141                	addi	sp,sp,-16
    80200916:	e422                	sd	s0,8(sp)
    80200918:	0800                	addi	s0,sp,16
  int n;

  for(n = 0; s[n]; n++)
    8020091a:	00054783          	lbu	a5,0(a0)
    8020091e:	cf91                	beqz	a5,8020093a <strlen+0x26>
    80200920:	0505                	addi	a0,a0,1
    80200922:	87aa                	mv	a5,a0
    80200924:	4685                	li	a3,1
    80200926:	9e89                	subw	a3,a3,a0
    80200928:	00f6853b          	addw	a0,a3,a5
    8020092c:	0785                	addi	a5,a5,1
    8020092e:	fff7c703          	lbu	a4,-1(a5)
    80200932:	fb7d                	bnez	a4,80200928 <strlen+0x14>
    ;
  return n;
}
    80200934:	6422                	ld	s0,8(sp)
    80200936:	0141                	addi	sp,sp,16
    80200938:	8082                	ret
  for(n = 0; s[n]; n++)
    8020093a:	4501                	li	a0,0
    8020093c:	bfe5                	j	80200934 <strlen+0x20>

000000008020093e <wnstr>:

// convert uchar string into wide char string 
void wnstr(wchar *dst, char const *src, int len) {
    8020093e:	1141                	addi	sp,sp,-16
    80200940:	e422                	sd	s0,8(sp)
    80200942:	0800                	addi	s0,sp,16
  while (len -- && *src) {
    80200944:	c20d                	beqz	a2,80200966 <wnstr+0x28>
    80200946:	02061793          	slli	a5,a2,0x20
    8020094a:	01f7d613          	srli	a2,a5,0x1f
    8020094e:	00c50733          	add	a4,a0,a2
    80200952:	0005c783          	lbu	a5,0(a1)
    80200956:	cb81                	beqz	a5,80200966 <wnstr+0x28>
    *(uchar*)dst = *src++;
    80200958:	0585                	addi	a1,a1,1
    8020095a:	00f50023          	sb	a5,0(a0)
    dst ++;
    8020095e:	0509                	addi	a0,a0,2
  while (len -- && *src) {
    80200960:	fee519e3          	bne	a0,a4,80200952 <wnstr+0x14>
    dst ++;
    80200964:	853a                	mv	a0,a4
  }

  *dst = 0;
    80200966:	00051023          	sh	zero,0(a0)
}
    8020096a:	6422                	ld	s0,8(sp)
    8020096c:	0141                	addi	sp,sp,16
    8020096e:	8082                	ret

0000000080200970 <snstr>:

// convert wide char string into uchar string 
void snstr(char *dst, wchar const *src, int len) {
    80200970:	1141                	addi	sp,sp,-16
    80200972:	e422                	sd	s0,8(sp)
    80200974:	0800                	addi	s0,sp,16
  while (len -- && *src) {
    80200976:	fff6071b          	addiw	a4,a2,-1
    8020097a:	02061693          	slli	a3,a2,0x20
    8020097e:	9281                	srli	a3,a3,0x20
    80200980:	96aa                	add	a3,a3,a0
    80200982:	c61d                	beqz	a2,802009b0 <snstr+0x40>
    80200984:	0005d783          	lhu	a5,0(a1)
    80200988:	cb89                	beqz	a5,8020099a <snstr+0x2a>
    *dst++ = (uchar)(*src & 0xff);
    8020098a:	0505                	addi	a0,a0,1
    8020098c:	fef50fa3          	sb	a5,-1(a0)
    src ++;
    80200990:	0589                	addi	a1,a1,2
  while (len -- && *src) {
    80200992:	377d                	addiw	a4,a4,-1
    80200994:	fed518e3          	bne	a0,a3,80200984 <snstr+0x14>
    *dst++ = (uchar)(*src & 0xff);
    80200998:	8536                	mv	a0,a3
  }
  while(len-- > 0)
    8020099a:	02071793          	slli	a5,a4,0x20
    8020099e:	9381                	srli	a5,a5,0x20
    802009a0:	97aa                	add	a5,a5,a0
    802009a2:	00e05763          	blez	a4,802009b0 <snstr+0x40>
    *dst++ = 0;
    802009a6:	0505                	addi	a0,a0,1
    802009a8:	fe050fa3          	sb	zero,-1(a0)
  while(len-- > 0)
    802009ac:	fea79de3          	bne	a5,a0,802009a6 <snstr+0x36>
}
    802009b0:	6422                	ld	s0,8(sp)
    802009b2:	0141                	addi	sp,sp,16
    802009b4:	8082                	ret

00000000802009b6 <wcsncmp>:

int wcsncmp(wchar const *s1, wchar const *s2, int len) {
    802009b6:	1141                	addi	sp,sp,-16
    802009b8:	e422                	sd	s0,8(sp)
    802009ba:	0800                	addi	s0,sp,16
    802009bc:	872a                	mv	a4,a0
  int ret = 0;

  while (len-- && *s1) {
    802009be:	02061793          	slli	a5,a2,0x20
    802009c2:	01f7d613          	srli	a2,a5,0x1f
    802009c6:	962e                	add	a2,a2,a1
    802009c8:	00c58f63          	beq	a1,a2,802009e6 <wcsncmp+0x30>
    802009cc:	00075783          	lhu	a5,0(a4)
    802009d0:	cb89                	beqz	a5,802009e2 <wcsncmp+0x2c>
    ret = (int)(*s1++ - *s2++);
    802009d2:	0709                	addi	a4,a4,2
    802009d4:	0589                	addi	a1,a1,2
    802009d6:	ffe5d683          	lhu	a3,-2(a1)
    802009da:	40d7853b          	subw	a0,a5,a3
    if (ret) break;
    802009de:	d56d                	beqz	a0,802009c8 <wcsncmp+0x12>
    802009e0:	a021                	j	802009e8 <wcsncmp+0x32>
    802009e2:	4501                	li	a0,0
    802009e4:	a011                	j	802009e8 <wcsncmp+0x32>
    802009e6:	4501                	li	a0,0
  }

  return ret;
}
    802009e8:	6422                	ld	s0,8(sp)
    802009ea:	0141                	addi	sp,sp,16
    802009ec:	8082                	ret

00000000802009ee <strchr>:

char*
strchr(const char *s, char c)
{
    802009ee:	1141                	addi	sp,sp,-16
    802009f0:	e422                	sd	s0,8(sp)
    802009f2:	0800                	addi	s0,sp,16
  for(; *s; s++)
    802009f4:	00054783          	lbu	a5,0(a0)
    802009f8:	cb99                	beqz	a5,80200a0e <strchr+0x20>
    if(*s == c)
    802009fa:	00f58763          	beq	a1,a5,80200a08 <strchr+0x1a>
  for(; *s; s++)
    802009fe:	0505                	addi	a0,a0,1
    80200a00:	00054783          	lbu	a5,0(a0)
    80200a04:	fbfd                	bnez	a5,802009fa <strchr+0xc>
      return (char*)s;
  return 0;
    80200a06:	4501                	li	a0,0
    80200a08:	6422                	ld	s0,8(sp)
    80200a0a:	0141                	addi	sp,sp,16
    80200a0c:	8082                	ret
  return 0;
    80200a0e:	4501                	li	a0,0
    80200a10:	bfe5                	j	80200a08 <strchr+0x1a>

0000000080200a12 <main>:

volatile static int started = 0;

void
main(unsigned long hartid, unsigned long dtb_pa)
{
    80200a12:	1101                	addi	sp,sp,-32
    80200a14:	ec06                	sd	ra,24(sp)
    80200a16:	e822                	sd	s0,16(sp)
    80200a18:	1000                	addi	s0,sp,32
    80200a1a:	85aa                	mv	a1,a0
  asm volatile("mv tp, %0" : : "r" (hartid & 0x1));
    80200a1c:	00157793          	andi	a5,a0,1
    80200a20:	823e                	mv	tp,a5
    started = 1;
  }
  else
  {
    // hart 1
    while (started == 0)
    80200a22:	0003b717          	auipc	a4,0x3b
    80200a26:	62e70713          	addi	a4,a4,1582 # 8023c050 <started>
  if (hartid == 0) {
    80200a2a:	c531                	beqz	a0,80200a76 <main+0x64>
    while (started == 0)
    80200a2c:	431c                	lw	a5,0(a4)
    80200a2e:	2781                	sext.w	a5,a5
    80200a30:	dff5                	beqz	a5,80200a2c <main+0x1a>
      ;
    __sync_synchronize();
    80200a32:	0ff0000f          	fence
    #ifdef DEBUG
    printf("hart %d enter main()...\n", hartid);
    80200a36:	00009517          	auipc	a0,0x9
    80200a3a:	9ca50513          	addi	a0,a0,-1590 # 80209400 <digits+0x80>
    80200a3e:	fffff097          	auipc	ra,0xfffff
    80200a42:	750080e7          	jalr	1872(ra) # 8020018e <printf>
    #endif
    kvminithart();
    80200a46:	00000097          	auipc	ra,0x0
    80200a4a:	0f0080e7          	jalr	240(ra) # 80200b36 <kvminithart>
    trapinithart();
    80200a4e:	00002097          	auipc	ra,0x2
    80200a52:	e7c080e7          	jalr	-388(ra) # 802028ca <trapinithart>
    plicinithart();  // ask PLIC for device interrupts
    80200a56:	00007097          	auipc	ra,0x7
    80200a5a:	a16080e7          	jalr	-1514(ra) # 8020746c <plicinithart>
    printf("hart 1 init done\n");
    80200a5e:	00009517          	auipc	a0,0x9
    80200a62:	9da50513          	addi	a0,a0,-1574 # 80209438 <digits+0xb8>
    80200a66:	fffff097          	auipc	ra,0xfffff
    80200a6a:	728080e7          	jalr	1832(ra) # 8020018e <printf>
  }
  scheduler();
    80200a6e:	00001097          	auipc	ra,0x1
    80200a72:	736080e7          	jalr	1846(ra) # 802021a4 <scheduler>
    consoleinit();
    80200a76:	00007097          	auipc	ra,0x7
    80200a7a:	e18080e7          	jalr	-488(ra) # 8020788e <consoleinit>
    printfinit();   // init a lock for printf 
    80200a7e:	00000097          	auipc	ra,0x0
    80200a82:	8f0080e7          	jalr	-1808(ra) # 8020036e <printfinit>
    print_logo();
    80200a86:	00000097          	auipc	ra,0x0
    80200a8a:	91a080e7          	jalr	-1766(ra) # 802003a0 <print_logo>
    printf("hart %d enter main()...\n", hartid);
    80200a8e:	4581                	li	a1,0
    80200a90:	00009517          	auipc	a0,0x9
    80200a94:	97050513          	addi	a0,a0,-1680 # 80209400 <digits+0x80>
    80200a98:	fffff097          	auipc	ra,0xfffff
    80200a9c:	6f6080e7          	jalr	1782(ra) # 8020018e <printf>
    kinit();         // physical page allocator
    80200aa0:	00000097          	auipc	ra,0x0
    80200aa4:	a6e080e7          	jalr	-1426(ra) # 8020050e <kinit>
    kvminit();       // create kernel page table
    80200aa8:	00000097          	auipc	ra,0x0
    80200aac:	2ec080e7          	jalr	748(ra) # 80200d94 <kvminit>
    kvminithart();   // turn on paging
    80200ab0:	00000097          	auipc	ra,0x0
    80200ab4:	086080e7          	jalr	134(ra) # 80200b36 <kvminithart>
    timerinit();     // init a lock for timer
    80200ab8:	00005097          	auipc	ra,0x5
    80200abc:	ec6080e7          	jalr	-314(ra) # 8020597e <timerinit>
    trapinithart();  // install kernel trap vector, including interrupt handler
    80200ac0:	00002097          	auipc	ra,0x2
    80200ac4:	e0a080e7          	jalr	-502(ra) # 802028ca <trapinithart>
    procinit();
    80200ac8:	00001097          	auipc	ra,0x1
    80200acc:	f5e080e7          	jalr	-162(ra) # 80201a26 <procinit>
    plicinit();
    80200ad0:	00007097          	auipc	ra,0x7
    80200ad4:	970080e7          	jalr	-1680(ra) # 80207440 <plicinit>
    plicinithart();
    80200ad8:	00007097          	auipc	ra,0x7
    80200adc:	994080e7          	jalr	-1644(ra) # 8020746c <plicinithart>
    disk_init();
    80200ae0:	00005097          	auipc	ra,0x5
    80200ae4:	f48080e7          	jalr	-184(ra) # 80205a28 <disk_init>
    binit();         // buffer cache
    80200ae8:	00003097          	auipc	ra,0x3
    80200aec:	da0080e7          	jalr	-608(ra) # 80203888 <binit>
    fileinit();      // file table
    80200af0:	00003097          	auipc	ra,0x3
    80200af4:	1b4080e7          	jalr	436(ra) # 80203ca4 <fileinit>
    userinit();      // first user process
    80200af8:	00001097          	auipc	ra,0x1
    80200afc:	2ee080e7          	jalr	750(ra) # 80201de6 <userinit>
    printf("hart 0 init done\n");
    80200b00:	00009517          	auipc	a0,0x9
    80200b04:	92050513          	addi	a0,a0,-1760 # 80209420 <digits+0xa0>
    80200b08:	fffff097          	auipc	ra,0xfffff
    80200b0c:	686080e7          	jalr	1670(ra) # 8020018e <printf>
      unsigned long mask = 1 << i;
    80200b10:	4789                	li	a5,2
    80200b12:	fef43423          	sd	a5,-24(s0)
	SBI_CALL_0(SBI_CLEAR_IPI);
}

static inline void sbi_send_ipi(const unsigned long *hart_mask)
{
	SBI_CALL_1(SBI_SEND_IPI, hart_mask);
    80200b16:	fe840513          	addi	a0,s0,-24
    80200b1a:	4581                	li	a1,0
    80200b1c:	4601                	li	a2,0
    80200b1e:	4681                	li	a3,0
    80200b20:	4891                	li	a7,4
    80200b22:	00000073          	ecall
    __sync_synchronize();
    80200b26:	0ff0000f          	fence
    started = 1;
    80200b2a:	4785                	li	a5,1
    80200b2c:	0003b717          	auipc	a4,0x3b
    80200b30:	52f72223          	sw	a5,1316(a4) # 8023c050 <started>
    80200b34:	bf2d                	j	80200a6e <main+0x5c>

0000000080200b36 <kvminithart>:

// Switch h/w page table register to the kernel's page table,
// and enable paging.
void
kvminithart()
{
    80200b36:	1141                	addi	sp,sp,-16
    80200b38:	e406                	sd	ra,8(sp)
    80200b3a:	e022                	sd	s0,0(sp)
    80200b3c:	0800                	addi	s0,sp,16
  w_satp(MAKE_SATP(kernel_pagetable));
    80200b3e:	0003b797          	auipc	a5,0x3b
    80200b42:	51a7b783          	ld	a5,1306(a5) # 8023c058 <kernel_pagetable>
    80200b46:	83b1                	srli	a5,a5,0xc
    80200b48:	577d                	li	a4,-1
    80200b4a:	177e                	slli	a4,a4,0x3f
    80200b4c:	8fd9                	or	a5,a5,a4
  asm volatile("csrw satp, %0" : : "r" (x));
    80200b4e:	18079073          	csrw	satp,a5
static inline void
sfence_vma()
{
  // the zero, zero means flush all TLB entries.
  // asm volatile("sfence.vma zero, zero");
  asm volatile("sfence.vma");
    80200b52:	12000073          	sfence.vma
  // reg_info();
  sfence_vma();
  #ifdef DEBUG
  printf("kvminithart\n");
    80200b56:	00009517          	auipc	a0,0x9
    80200b5a:	8fa50513          	addi	a0,a0,-1798 # 80209450 <digits+0xd0>
    80200b5e:	fffff097          	auipc	ra,0xfffff
    80200b62:	630080e7          	jalr	1584(ra) # 8020018e <printf>
  #endif
}
    80200b66:	60a2                	ld	ra,8(sp)
    80200b68:	6402                	ld	s0,0(sp)
    80200b6a:	0141                	addi	sp,sp,16
    80200b6c:	8082                	ret

0000000080200b6e <walk>:
//   21..29 -- 9 bits of level-1 index.
//   12..20 -- 9 bits of level-0 index.
//    0..11 -- 12 bits of byte offset within the page.
pte_t *
walk(pagetable_t pagetable, uint64 va, int alloc)
{
    80200b6e:	7139                	addi	sp,sp,-64
    80200b70:	fc06                	sd	ra,56(sp)
    80200b72:	f822                	sd	s0,48(sp)
    80200b74:	f426                	sd	s1,40(sp)
    80200b76:	f04a                	sd	s2,32(sp)
    80200b78:	ec4e                	sd	s3,24(sp)
    80200b7a:	e852                	sd	s4,16(sp)
    80200b7c:	e456                	sd	s5,8(sp)
    80200b7e:	e05a                	sd	s6,0(sp)
    80200b80:	0080                	addi	s0,sp,64
    80200b82:	84aa                	mv	s1,a0
    80200b84:	89ae                	mv	s3,a1
    80200b86:	8ab2                	mv	s5,a2
  
  if(va >= MAXVA)
    80200b88:	57fd                	li	a5,-1
    80200b8a:	83e9                	srli	a5,a5,0x1a
    80200b8c:	4a79                	li	s4,30
    panic("walk");

  for(int level = 2; level > 0; level--) {
    80200b8e:	4b31                	li	s6,12
  if(va >= MAXVA)
    80200b90:	04b7f263          	bgeu	a5,a1,80200bd4 <walk+0x66>
    panic("walk");
    80200b94:	00009517          	auipc	a0,0x9
    80200b98:	8cc50513          	addi	a0,a0,-1844 # 80209460 <digits+0xe0>
    80200b9c:	fffff097          	auipc	ra,0xfffff
    80200ba0:	5a8080e7          	jalr	1448(ra) # 80200144 <panic>
    pte_t *pte = &pagetable[PX(level, va)];
    if(*pte & PTE_V) {
      pagetable = (pagetable_t)PTE2PA(*pte);
    } else {
      if(!alloc || (pagetable = (pde_t*)kalloc()) == NULL)
    80200ba4:	060a8663          	beqz	s5,80200c10 <walk+0xa2>
    80200ba8:	00000097          	auipc	ra,0x0
    80200bac:	9e0080e7          	jalr	-1568(ra) # 80200588 <kalloc>
    80200bb0:	84aa                	mv	s1,a0
    80200bb2:	c529                	beqz	a0,80200bfc <walk+0x8e>
        return NULL;
      memset(pagetable, 0, PGSIZE);
    80200bb4:	6605                	lui	a2,0x1
    80200bb6:	4581                	li	a1,0
    80200bb8:	00000097          	auipc	ra,0x0
    80200bbc:	bd8080e7          	jalr	-1064(ra) # 80200790 <memset>
      *pte = PA2PTE(pagetable) | PTE_V;
    80200bc0:	00c4d793          	srli	a5,s1,0xc
    80200bc4:	07aa                	slli	a5,a5,0xa
    80200bc6:	0017e793          	ori	a5,a5,1
    80200bca:	00f93023          	sd	a5,0(s2)
  for(int level = 2; level > 0; level--) {
    80200bce:	3a5d                	addiw	s4,s4,-9 # ffffffffffffeff7 <ebss_clear+0xffffffff7fda6ff7>
    80200bd0:	036a0063          	beq	s4,s6,80200bf0 <walk+0x82>
    pte_t *pte = &pagetable[PX(level, va)];
    80200bd4:	0149d933          	srl	s2,s3,s4
    80200bd8:	1ff97913          	andi	s2,s2,511
    80200bdc:	090e                	slli	s2,s2,0x3
    80200bde:	9926                	add	s2,s2,s1
    if(*pte & PTE_V) {
    80200be0:	00093483          	ld	s1,0(s2)
    80200be4:	0014f793          	andi	a5,s1,1
    80200be8:	dfd5                	beqz	a5,80200ba4 <walk+0x36>
      pagetable = (pagetable_t)PTE2PA(*pte);
    80200bea:	80a9                	srli	s1,s1,0xa
    80200bec:	04b2                	slli	s1,s1,0xc
    80200bee:	b7c5                	j	80200bce <walk+0x60>
    }
  }
  return &pagetable[PX(0, va)];
    80200bf0:	00c9d513          	srli	a0,s3,0xc
    80200bf4:	1ff57513          	andi	a0,a0,511
    80200bf8:	050e                	slli	a0,a0,0x3
    80200bfa:	9526                	add	a0,a0,s1
}
    80200bfc:	70e2                	ld	ra,56(sp)
    80200bfe:	7442                	ld	s0,48(sp)
    80200c00:	74a2                	ld	s1,40(sp)
    80200c02:	7902                	ld	s2,32(sp)
    80200c04:	69e2                	ld	s3,24(sp)
    80200c06:	6a42                	ld	s4,16(sp)
    80200c08:	6aa2                	ld	s5,8(sp)
    80200c0a:	6b02                	ld	s6,0(sp)
    80200c0c:	6121                	addi	sp,sp,64
    80200c0e:	8082                	ret
        return NULL;
    80200c10:	4501                	li	a0,0
    80200c12:	b7ed                	j	80200bfc <walk+0x8e>

0000000080200c14 <walkaddr>:
walkaddr(pagetable_t pagetable, uint64 va)
{
  pte_t *pte;
  uint64 pa;

  if(va >= MAXVA)
    80200c14:	57fd                	li	a5,-1
    80200c16:	83e9                	srli	a5,a5,0x1a
    80200c18:	00b7f463          	bgeu	a5,a1,80200c20 <walkaddr+0xc>
    return NULL;
    80200c1c:	4501                	li	a0,0
    return NULL;
  if((*pte & PTE_U) == 0)
    return NULL;
  pa = PTE2PA(*pte);
  return pa;
}
    80200c1e:	8082                	ret
{
    80200c20:	1141                	addi	sp,sp,-16
    80200c22:	e406                	sd	ra,8(sp)
    80200c24:	e022                	sd	s0,0(sp)
    80200c26:	0800                	addi	s0,sp,16
  pte = walk(pagetable, va, 0);
    80200c28:	4601                	li	a2,0
    80200c2a:	00000097          	auipc	ra,0x0
    80200c2e:	f44080e7          	jalr	-188(ra) # 80200b6e <walk>
  if(pte == 0)
    80200c32:	c105                	beqz	a0,80200c52 <walkaddr+0x3e>
  if((*pte & PTE_V) == 0)
    80200c34:	611c                	ld	a5,0(a0)
  if((*pte & PTE_U) == 0)
    80200c36:	0117f693          	andi	a3,a5,17
    80200c3a:	4745                	li	a4,17
    return NULL;
    80200c3c:	4501                	li	a0,0
  if((*pte & PTE_U) == 0)
    80200c3e:	00e68663          	beq	a3,a4,80200c4a <walkaddr+0x36>
}
    80200c42:	60a2                	ld	ra,8(sp)
    80200c44:	6402                	ld	s0,0(sp)
    80200c46:	0141                	addi	sp,sp,16
    80200c48:	8082                	ret
  pa = PTE2PA(*pte);
    80200c4a:	83a9                	srli	a5,a5,0xa
    80200c4c:	00c79513          	slli	a0,a5,0xc
  return pa;
    80200c50:	bfcd                	j	80200c42 <walkaddr+0x2e>
    return NULL;
    80200c52:	4501                	li	a0,0
    80200c54:	b7fd                	j	80200c42 <walkaddr+0x2e>

0000000080200c56 <kwalkaddr>:
  return kwalkaddr(kernel_pagetable, va);
}

uint64
kwalkaddr(pagetable_t kpt, uint64 va)
{
    80200c56:	1101                	addi	sp,sp,-32
    80200c58:	ec06                	sd	ra,24(sp)
    80200c5a:	e822                	sd	s0,16(sp)
    80200c5c:	e426                	sd	s1,8(sp)
    80200c5e:	1000                	addi	s0,sp,32
  uint64 off = va % PGSIZE;
    80200c60:	03459793          	slli	a5,a1,0x34
    80200c64:	0347d493          	srli	s1,a5,0x34
  pte_t *pte;
  uint64 pa;
  
  pte = walk(kpt, va, 0);
    80200c68:	4601                	li	a2,0
    80200c6a:	00000097          	auipc	ra,0x0
    80200c6e:	f04080e7          	jalr	-252(ra) # 80200b6e <walk>
  if(pte == 0)
    80200c72:	cd09                	beqz	a0,80200c8c <kwalkaddr+0x36>
    panic("kvmpa");
  if((*pte & PTE_V) == 0)
    80200c74:	6108                	ld	a0,0(a0)
    80200c76:	00157793          	andi	a5,a0,1
    80200c7a:	c38d                	beqz	a5,80200c9c <kwalkaddr+0x46>
    panic("kvmpa");
  pa = PTE2PA(*pte);
    80200c7c:	8129                	srli	a0,a0,0xa
    80200c7e:	0532                	slli	a0,a0,0xc
  return pa+off;
}
    80200c80:	9526                	add	a0,a0,s1
    80200c82:	60e2                	ld	ra,24(sp)
    80200c84:	6442                	ld	s0,16(sp)
    80200c86:	64a2                	ld	s1,8(sp)
    80200c88:	6105                	addi	sp,sp,32
    80200c8a:	8082                	ret
    panic("kvmpa");
    80200c8c:	00008517          	auipc	a0,0x8
    80200c90:	7dc50513          	addi	a0,a0,2012 # 80209468 <digits+0xe8>
    80200c94:	fffff097          	auipc	ra,0xfffff
    80200c98:	4b0080e7          	jalr	1200(ra) # 80200144 <panic>
    panic("kvmpa");
    80200c9c:	00008517          	auipc	a0,0x8
    80200ca0:	7cc50513          	addi	a0,a0,1996 # 80209468 <digits+0xe8>
    80200ca4:	fffff097          	auipc	ra,0xfffff
    80200ca8:	4a0080e7          	jalr	1184(ra) # 80200144 <panic>

0000000080200cac <kvmpa>:
{
    80200cac:	1141                	addi	sp,sp,-16
    80200cae:	e406                	sd	ra,8(sp)
    80200cb0:	e022                	sd	s0,0(sp)
    80200cb2:	0800                	addi	s0,sp,16
    80200cb4:	85aa                	mv	a1,a0
  return kwalkaddr(kernel_pagetable, va);
    80200cb6:	0003b517          	auipc	a0,0x3b
    80200cba:	3a253503          	ld	a0,930(a0) # 8023c058 <kernel_pagetable>
    80200cbe:	00000097          	auipc	ra,0x0
    80200cc2:	f98080e7          	jalr	-104(ra) # 80200c56 <kwalkaddr>
}
    80200cc6:	60a2                	ld	ra,8(sp)
    80200cc8:	6402                	ld	s0,0(sp)
    80200cca:	0141                	addi	sp,sp,16
    80200ccc:	8082                	ret

0000000080200cce <mappages>:
// physical addresses starting at pa. va and size might not
// be page-aligned. Returns 0 on success, -1 if walk() couldn't
// allocate a needed page-table page.
int
mappages(pagetable_t pagetable, uint64 va, uint64 size, uint64 pa, int perm)
{
    80200cce:	715d                	addi	sp,sp,-80
    80200cd0:	e486                	sd	ra,72(sp)
    80200cd2:	e0a2                	sd	s0,64(sp)
    80200cd4:	fc26                	sd	s1,56(sp)
    80200cd6:	f84a                	sd	s2,48(sp)
    80200cd8:	f44e                	sd	s3,40(sp)
    80200cda:	f052                	sd	s4,32(sp)
    80200cdc:	ec56                	sd	s5,24(sp)
    80200cde:	e85a                	sd	s6,16(sp)
    80200ce0:	e45e                	sd	s7,8(sp)
    80200ce2:	0880                	addi	s0,sp,80
    80200ce4:	8aaa                	mv	s5,a0
    80200ce6:	8b3a                	mv	s6,a4
  uint64 a, last;
  pte_t *pte;

  a = PGROUNDDOWN(va);
    80200ce8:	777d                	lui	a4,0xfffff
    80200cea:	00e5f7b3          	and	a5,a1,a4
  last = PGROUNDDOWN(va + size - 1);
    80200cee:	fff60993          	addi	s3,a2,-1 # fff <_entry-0x801ff001>
    80200cf2:	99ae                	add	s3,s3,a1
    80200cf4:	00e9f9b3          	and	s3,s3,a4
  a = PGROUNDDOWN(va);
    80200cf8:	893e                	mv	s2,a5
    80200cfa:	40f68a33          	sub	s4,a3,a5
    if(*pte & PTE_V)
      panic("remap");
    *pte = PA2PTE(pa) | perm | PTE_V;
    if(a == last)
      break;
    a += PGSIZE;
    80200cfe:	6b85                	lui	s7,0x1
    80200d00:	012a04b3          	add	s1,s4,s2
    if((pte = walk(pagetable, a, 1)) == NULL)
    80200d04:	4605                	li	a2,1
    80200d06:	85ca                	mv	a1,s2
    80200d08:	8556                	mv	a0,s5
    80200d0a:	00000097          	auipc	ra,0x0
    80200d0e:	e64080e7          	jalr	-412(ra) # 80200b6e <walk>
    80200d12:	c51d                	beqz	a0,80200d40 <mappages+0x72>
    if(*pte & PTE_V)
    80200d14:	611c                	ld	a5,0(a0)
    80200d16:	8b85                	andi	a5,a5,1
    80200d18:	ef81                	bnez	a5,80200d30 <mappages+0x62>
    *pte = PA2PTE(pa) | perm | PTE_V;
    80200d1a:	80b1                	srli	s1,s1,0xc
    80200d1c:	04aa                	slli	s1,s1,0xa
    80200d1e:	0164e4b3          	or	s1,s1,s6
    80200d22:	0014e493          	ori	s1,s1,1
    80200d26:	e104                	sd	s1,0(a0)
    if(a == last)
    80200d28:	03390863          	beq	s2,s3,80200d58 <mappages+0x8a>
    a += PGSIZE;
    80200d2c:	995e                	add	s2,s2,s7
    if((pte = walk(pagetable, a, 1)) == NULL)
    80200d2e:	bfc9                	j	80200d00 <mappages+0x32>
      panic("remap");
    80200d30:	00008517          	auipc	a0,0x8
    80200d34:	74050513          	addi	a0,a0,1856 # 80209470 <digits+0xf0>
    80200d38:	fffff097          	auipc	ra,0xfffff
    80200d3c:	40c080e7          	jalr	1036(ra) # 80200144 <panic>
      return -1;
    80200d40:	557d                	li	a0,-1
    pa += PGSIZE;
  }
  return 0;
}
    80200d42:	60a6                	ld	ra,72(sp)
    80200d44:	6406                	ld	s0,64(sp)
    80200d46:	74e2                	ld	s1,56(sp)
    80200d48:	7942                	ld	s2,48(sp)
    80200d4a:	79a2                	ld	s3,40(sp)
    80200d4c:	7a02                	ld	s4,32(sp)
    80200d4e:	6ae2                	ld	s5,24(sp)
    80200d50:	6b42                	ld	s6,16(sp)
    80200d52:	6ba2                	ld	s7,8(sp)
    80200d54:	6161                	addi	sp,sp,80
    80200d56:	8082                	ret
  return 0;
    80200d58:	4501                	li	a0,0
    80200d5a:	b7e5                	j	80200d42 <mappages+0x74>

0000000080200d5c <kvmmap>:
{
    80200d5c:	1141                	addi	sp,sp,-16
    80200d5e:	e406                	sd	ra,8(sp)
    80200d60:	e022                	sd	s0,0(sp)
    80200d62:	0800                	addi	s0,sp,16
    80200d64:	8736                	mv	a4,a3
  if(mappages(kernel_pagetable, va, sz, pa, perm) != 0)
    80200d66:	86ae                	mv	a3,a1
    80200d68:	85aa                	mv	a1,a0
    80200d6a:	0003b517          	auipc	a0,0x3b
    80200d6e:	2ee53503          	ld	a0,750(a0) # 8023c058 <kernel_pagetable>
    80200d72:	00000097          	auipc	ra,0x0
    80200d76:	f5c080e7          	jalr	-164(ra) # 80200cce <mappages>
    80200d7a:	e509                	bnez	a0,80200d84 <kvmmap+0x28>
}
    80200d7c:	60a2                	ld	ra,8(sp)
    80200d7e:	6402                	ld	s0,0(sp)
    80200d80:	0141                	addi	sp,sp,16
    80200d82:	8082                	ret
    panic("kvmmap");
    80200d84:	00008517          	auipc	a0,0x8
    80200d88:	6f450513          	addi	a0,a0,1780 # 80209478 <digits+0xf8>
    80200d8c:	fffff097          	auipc	ra,0xfffff
    80200d90:	3b8080e7          	jalr	952(ra) # 80200144 <panic>

0000000080200d94 <kvminit>:
{
    80200d94:	1101                	addi	sp,sp,-32
    80200d96:	ec06                	sd	ra,24(sp)
    80200d98:	e822                	sd	s0,16(sp)
    80200d9a:	e426                	sd	s1,8(sp)
    80200d9c:	1000                	addi	s0,sp,32
  kernel_pagetable = (pagetable_t) kalloc();
    80200d9e:	fffff097          	auipc	ra,0xfffff
    80200da2:	7ea080e7          	jalr	2026(ra) # 80200588 <kalloc>
    80200da6:	0003b717          	auipc	a4,0x3b
    80200daa:	2aa73923          	sd	a0,690(a4) # 8023c058 <kernel_pagetable>
  memset(kernel_pagetable, 0, PGSIZE);
    80200dae:	6605                	lui	a2,0x1
    80200db0:	4581                	li	a1,0
    80200db2:	00000097          	auipc	ra,0x0
    80200db6:	9de080e7          	jalr	-1570(ra) # 80200790 <memset>
  kvmmap(UART_V, UART, PGSIZE, PTE_R | PTE_W);
    80200dba:	4699                	li	a3,6
    80200dbc:	6605                	lui	a2,0x1
    80200dbe:	100005b7          	lui	a1,0x10000
    80200dc2:	3f100513          	li	a0,1009
    80200dc6:	0572                	slli	a0,a0,0x1c
    80200dc8:	00000097          	auipc	ra,0x0
    80200dcc:	f94080e7          	jalr	-108(ra) # 80200d5c <kvmmap>
  kvmmap(VIRTIO0_V, VIRTIO0, PGSIZE, PTE_R | PTE_W);
    80200dd0:	4699                	li	a3,6
    80200dd2:	6605                	lui	a2,0x1
    80200dd4:	100015b7          	lui	a1,0x10001
    80200dd8:	03f10537          	lui	a0,0x3f10
    80200ddc:	0505                	addi	a0,a0,1 # 3f10001 <_entry-0x7c2effff>
    80200dde:	0532                	slli	a0,a0,0xc
    80200de0:	00000097          	auipc	ra,0x0
    80200de4:	f7c080e7          	jalr	-132(ra) # 80200d5c <kvmmap>
  kvmmap(CLINT_V, CLINT, 0x10000, PTE_R | PTE_W);
    80200de8:	4699                	li	a3,6
    80200dea:	6641                	lui	a2,0x10
    80200dec:	020005b7          	lui	a1,0x2000
    80200df0:	01f81537          	lui	a0,0x1f81
    80200df4:	0536                	slli	a0,a0,0xd
    80200df6:	00000097          	auipc	ra,0x0
    80200dfa:	f66080e7          	jalr	-154(ra) # 80200d5c <kvmmap>
  kvmmap(PLIC_V, PLIC, 0x4000, PTE_R | PTE_W);
    80200dfe:	4699                	li	a3,6
    80200e00:	6611                	lui	a2,0x4
    80200e02:	0c0005b7          	lui	a1,0xc000
    80200e06:	00fc3537          	lui	a0,0xfc3
    80200e0a:	053a                	slli	a0,a0,0xe
    80200e0c:	00000097          	auipc	ra,0x0
    80200e10:	f50080e7          	jalr	-176(ra) # 80200d5c <kvmmap>
  kvmmap(PLIC_V + 0x200000, PLIC + 0x200000, 0x4000, PTE_R | PTE_W);
    80200e14:	4699                	li	a3,6
    80200e16:	6611                	lui	a2,0x4
    80200e18:	0c2005b7          	lui	a1,0xc200
    80200e1c:	1f861537          	lui	a0,0x1f861
    80200e20:	0526                	slli	a0,a0,0x9
    80200e22:	00000097          	auipc	ra,0x0
    80200e26:	f3a080e7          	jalr	-198(ra) # 80200d5c <kvmmap>
  kvmmap(KERNBASE, KERNBASE, (uint64)etext - KERNBASE, PTE_R | PTE_X);
    80200e2a:	00032497          	auipc	s1,0x32
    80200e2e:	4ce4b483          	ld	s1,1230(s1) # 802332f8 <_GLOBAL_OFFSET_TABLE_+0x20>
    80200e32:	46a9                	li	a3,10
    80200e34:	bff00613          	li	a2,-1025
    80200e38:	0656                	slli	a2,a2,0x15
    80200e3a:	9626                	add	a2,a2,s1
    80200e3c:	40100593          	li	a1,1025
    80200e40:	05d6                	slli	a1,a1,0x15
    80200e42:	852e                	mv	a0,a1
    80200e44:	00000097          	auipc	ra,0x0
    80200e48:	f18080e7          	jalr	-232(ra) # 80200d5c <kvmmap>
  kvmmap((uint64)etext, (uint64)etext, PHYSTOP - (uint64)etext, PTE_R | PTE_W);
    80200e4c:	4699                	li	a3,6
    80200e4e:	40300613          	li	a2,1027
    80200e52:	0656                	slli	a2,a2,0x15
    80200e54:	8e05                	sub	a2,a2,s1
    80200e56:	85a6                	mv	a1,s1
    80200e58:	8526                	mv	a0,s1
    80200e5a:	00000097          	auipc	ra,0x0
    80200e5e:	f02080e7          	jalr	-254(ra) # 80200d5c <kvmmap>
  kvmmap(TRAMPOLINE, (uint64)trampoline, PGSIZE, PTE_R | PTE_X);
    80200e62:	46a9                	li	a3,10
    80200e64:	6605                	lui	a2,0x1
    80200e66:	00032597          	auipc	a1,0x32
    80200e6a:	47a5b583          	ld	a1,1146(a1) # 802332e0 <_GLOBAL_OFFSET_TABLE_+0x8>
    80200e6e:	04000537          	lui	a0,0x4000
    80200e72:	157d                	addi	a0,a0,-1 # 3ffffff <_entry-0x7c200001>
    80200e74:	0532                	slli	a0,a0,0xc
    80200e76:	00000097          	auipc	ra,0x0
    80200e7a:	ee6080e7          	jalr	-282(ra) # 80200d5c <kvmmap>
  printf("kvminit\n");
    80200e7e:	00008517          	auipc	a0,0x8
    80200e82:	60250513          	addi	a0,a0,1538 # 80209480 <digits+0x100>
    80200e86:	fffff097          	auipc	ra,0xfffff
    80200e8a:	308080e7          	jalr	776(ra) # 8020018e <printf>
}
    80200e8e:	60e2                	ld	ra,24(sp)
    80200e90:	6442                	ld	s0,16(sp)
    80200e92:	64a2                	ld	s1,8(sp)
    80200e94:	6105                	addi	sp,sp,32
    80200e96:	8082                	ret

0000000080200e98 <vmunmap>:
// Remove npages of mappings starting from va. va must be
// page-aligned. The mappings must exist.
// Optionally free the physical memory.
void
vmunmap(pagetable_t pagetable, uint64 va, uint64 npages, int do_free)
{
    80200e98:	715d                	addi	sp,sp,-80
    80200e9a:	e486                	sd	ra,72(sp)
    80200e9c:	e0a2                	sd	s0,64(sp)
    80200e9e:	fc26                	sd	s1,56(sp)
    80200ea0:	f84a                	sd	s2,48(sp)
    80200ea2:	f44e                	sd	s3,40(sp)
    80200ea4:	f052                	sd	s4,32(sp)
    80200ea6:	ec56                	sd	s5,24(sp)
    80200ea8:	e85a                	sd	s6,16(sp)
    80200eaa:	e45e                	sd	s7,8(sp)
    80200eac:	0880                	addi	s0,sp,80
  uint64 a;
  pte_t *pte;

  if((va % PGSIZE) != 0)
    80200eae:	03459793          	slli	a5,a1,0x34
    80200eb2:	e795                	bnez	a5,80200ede <vmunmap+0x46>
    80200eb4:	8a2a                	mv	s4,a0
    80200eb6:	892e                	mv	s2,a1
    80200eb8:	8ab6                	mv	s5,a3
    panic("vmunmap: not aligned");

  for(a = va; a < va + npages*PGSIZE; a += PGSIZE){
    80200eba:	0632                	slli	a2,a2,0xc
    80200ebc:	00b609b3          	add	s3,a2,a1
    if((pte = walk(pagetable, a, 0)) == 0)
      panic("vmunmap: walk");
    if((*pte & PTE_V) == 0)
      panic("vmunmap: not mapped");
    if(PTE_FLAGS(*pte) == PTE_V)
    80200ec0:	4b85                	li	s7,1
  for(a = va; a < va + npages*PGSIZE; a += PGSIZE){
    80200ec2:	6b05                	lui	s6,0x1
    80200ec4:	0735e263          	bltu	a1,s3,80200f28 <vmunmap+0x90>
      uint64 pa = PTE2PA(*pte);
      kfree((void*)pa);
    }
    *pte = 0;
  }
}
    80200ec8:	60a6                	ld	ra,72(sp)
    80200eca:	6406                	ld	s0,64(sp)
    80200ecc:	74e2                	ld	s1,56(sp)
    80200ece:	7942                	ld	s2,48(sp)
    80200ed0:	79a2                	ld	s3,40(sp)
    80200ed2:	7a02                	ld	s4,32(sp)
    80200ed4:	6ae2                	ld	s5,24(sp)
    80200ed6:	6b42                	ld	s6,16(sp)
    80200ed8:	6ba2                	ld	s7,8(sp)
    80200eda:	6161                	addi	sp,sp,80
    80200edc:	8082                	ret
    panic("vmunmap: not aligned");
    80200ede:	00008517          	auipc	a0,0x8
    80200ee2:	5b250513          	addi	a0,a0,1458 # 80209490 <digits+0x110>
    80200ee6:	fffff097          	auipc	ra,0xfffff
    80200eea:	25e080e7          	jalr	606(ra) # 80200144 <panic>
      panic("vmunmap: walk");
    80200eee:	00008517          	auipc	a0,0x8
    80200ef2:	5ba50513          	addi	a0,a0,1466 # 802094a8 <digits+0x128>
    80200ef6:	fffff097          	auipc	ra,0xfffff
    80200efa:	24e080e7          	jalr	590(ra) # 80200144 <panic>
      panic("vmunmap: not mapped");
    80200efe:	00008517          	auipc	a0,0x8
    80200f02:	5ba50513          	addi	a0,a0,1466 # 802094b8 <digits+0x138>
    80200f06:	fffff097          	auipc	ra,0xfffff
    80200f0a:	23e080e7          	jalr	574(ra) # 80200144 <panic>
      panic("vmunmap: not a leaf");
    80200f0e:	00008517          	auipc	a0,0x8
    80200f12:	5c250513          	addi	a0,a0,1474 # 802094d0 <digits+0x150>
    80200f16:	fffff097          	auipc	ra,0xfffff
    80200f1a:	22e080e7          	jalr	558(ra) # 80200144 <panic>
    *pte = 0;
    80200f1e:	0004b023          	sd	zero,0(s1)
  for(a = va; a < va + npages*PGSIZE; a += PGSIZE){
    80200f22:	995a                	add	s2,s2,s6
    80200f24:	fb3972e3          	bgeu	s2,s3,80200ec8 <vmunmap+0x30>
    if((pte = walk(pagetable, a, 0)) == 0)
    80200f28:	4601                	li	a2,0
    80200f2a:	85ca                	mv	a1,s2
    80200f2c:	8552                	mv	a0,s4
    80200f2e:	00000097          	auipc	ra,0x0
    80200f32:	c40080e7          	jalr	-960(ra) # 80200b6e <walk>
    80200f36:	84aa                	mv	s1,a0
    80200f38:	d95d                	beqz	a0,80200eee <vmunmap+0x56>
    if((*pte & PTE_V) == 0)
    80200f3a:	6108                	ld	a0,0(a0)
    80200f3c:	00157793          	andi	a5,a0,1
    80200f40:	dfdd                	beqz	a5,80200efe <vmunmap+0x66>
    if(PTE_FLAGS(*pte) == PTE_V)
    80200f42:	3ff57793          	andi	a5,a0,1023
    80200f46:	fd7784e3          	beq	a5,s7,80200f0e <vmunmap+0x76>
    if(do_free){
    80200f4a:	fc0a8ae3          	beqz	s5,80200f1e <vmunmap+0x86>
      uint64 pa = PTE2PA(*pte);
    80200f4e:	8129                	srli	a0,a0,0xa
      kfree((void*)pa);
    80200f50:	0532                	slli	a0,a0,0xc
    80200f52:	fffff097          	auipc	ra,0xfffff
    80200f56:	4ee080e7          	jalr	1262(ra) # 80200440 <kfree>
    80200f5a:	b7d1                	j	80200f1e <vmunmap+0x86>

0000000080200f5c <uvmcreate>:

// create an empty user page table.
// returns 0 if out of memory.
pagetable_t
uvmcreate()
{
    80200f5c:	1101                	addi	sp,sp,-32
    80200f5e:	ec06                	sd	ra,24(sp)
    80200f60:	e822                	sd	s0,16(sp)
    80200f62:	e426                	sd	s1,8(sp)
    80200f64:	1000                	addi	s0,sp,32
  pagetable_t pagetable;
  pagetable = (pagetable_t) kalloc();
    80200f66:	fffff097          	auipc	ra,0xfffff
    80200f6a:	622080e7          	jalr	1570(ra) # 80200588 <kalloc>
    80200f6e:	84aa                	mv	s1,a0
  if(pagetable == NULL)
    80200f70:	c519                	beqz	a0,80200f7e <uvmcreate+0x22>
    return NULL;
  memset(pagetable, 0, PGSIZE);
    80200f72:	6605                	lui	a2,0x1
    80200f74:	4581                	li	a1,0
    80200f76:	00000097          	auipc	ra,0x0
    80200f7a:	81a080e7          	jalr	-2022(ra) # 80200790 <memset>
  return pagetable;
}
    80200f7e:	8526                	mv	a0,s1
    80200f80:	60e2                	ld	ra,24(sp)
    80200f82:	6442                	ld	s0,16(sp)
    80200f84:	64a2                	ld	s1,8(sp)
    80200f86:	6105                	addi	sp,sp,32
    80200f88:	8082                	ret

0000000080200f8a <uvminit>:
// Load the user initcode into address 0 of pagetable,
// for the very first process.
// sz must be less than a page.
void
uvminit(pagetable_t pagetable, pagetable_t kpagetable, uchar *src, uint sz)
{
    80200f8a:	7139                	addi	sp,sp,-64
    80200f8c:	fc06                	sd	ra,56(sp)
    80200f8e:	f822                	sd	s0,48(sp)
    80200f90:	f426                	sd	s1,40(sp)
    80200f92:	f04a                	sd	s2,32(sp)
    80200f94:	ec4e                	sd	s3,24(sp)
    80200f96:	e852                	sd	s4,16(sp)
    80200f98:	e456                	sd	s5,8(sp)
    80200f9a:	0080                	addi	s0,sp,64
  char *mem;

  if(sz >= PGSIZE)
    80200f9c:	6785                	lui	a5,0x1
    80200f9e:	06f6fe63          	bgeu	a3,a5,8020101a <uvminit+0x90>
    80200fa2:	89aa                	mv	s3,a0
    80200fa4:	8aae                	mv	s5,a1
    80200fa6:	8a32                	mv	s4,a2
    80200fa8:	8936                	mv	s2,a3
    panic("inituvm: more than a page");
  mem = kalloc();
    80200faa:	fffff097          	auipc	ra,0xfffff
    80200fae:	5de080e7          	jalr	1502(ra) # 80200588 <kalloc>
    80200fb2:	84aa                	mv	s1,a0
  memset(mem, 0, PGSIZE);
    80200fb4:	6605                	lui	a2,0x1
    80200fb6:	4581                	li	a1,0
    80200fb8:	fffff097          	auipc	ra,0xfffff
    80200fbc:	7d8080e7          	jalr	2008(ra) # 80200790 <memset>
  mappages(pagetable, 0, PGSIZE, (uint64)mem, PTE_W|PTE_R|PTE_X|PTE_U);
    80200fc0:	4779                	li	a4,30
    80200fc2:	86a6                	mv	a3,s1
    80200fc4:	6605                	lui	a2,0x1
    80200fc6:	4581                	li	a1,0
    80200fc8:	854e                	mv	a0,s3
    80200fca:	00000097          	auipc	ra,0x0
    80200fce:	d04080e7          	jalr	-764(ra) # 80200cce <mappages>
  mappages(pagetable, 0x100000, PGSIZE, 0x100000, PTE_W|PTE_R|PTE_U);
    80200fd2:	4759                	li	a4,22
    80200fd4:	001006b7          	lui	a3,0x100
    80200fd8:	6605                	lui	a2,0x1
    80200fda:	001005b7          	lui	a1,0x100
    80200fde:	854e                	mv	a0,s3
    80200fe0:	00000097          	auipc	ra,0x0
    80200fe4:	cee080e7          	jalr	-786(ra) # 80200cce <mappages>
  mappages(kpagetable, 0, PGSIZE, (uint64)mem, PTE_W|PTE_R|PTE_X);
    80200fe8:	4739                	li	a4,14
    80200fea:	86a6                	mv	a3,s1
    80200fec:	6605                	lui	a2,0x1
    80200fee:	4581                	li	a1,0
    80200ff0:	8556                	mv	a0,s5
    80200ff2:	00000097          	auipc	ra,0x0
    80200ff6:	cdc080e7          	jalr	-804(ra) # 80200cce <mappages>
  memmove(mem, src, sz);
    80200ffa:	864a                	mv	a2,s2
    80200ffc:	85d2                	mv	a1,s4
    80200ffe:	8526                	mv	a0,s1
    80201000:	fffff097          	auipc	ra,0xfffff
    80201004:	7ec080e7          	jalr	2028(ra) # 802007ec <memmove>
}
    80201008:	70e2                	ld	ra,56(sp)
    8020100a:	7442                	ld	s0,48(sp)
    8020100c:	74a2                	ld	s1,40(sp)
    8020100e:	7902                	ld	s2,32(sp)
    80201010:	69e2                	ld	s3,24(sp)
    80201012:	6a42                	ld	s4,16(sp)
    80201014:	6aa2                	ld	s5,8(sp)
    80201016:	6121                	addi	sp,sp,64
    80201018:	8082                	ret
    panic("inituvm: more than a page");
    8020101a:	00008517          	auipc	a0,0x8
    8020101e:	4ce50513          	addi	a0,a0,1230 # 802094e8 <digits+0x168>
    80201022:	fffff097          	auipc	ra,0xfffff
    80201026:	122080e7          	jalr	290(ra) # 80200144 <panic>

000000008020102a <uvmdealloc>:
// newsz.  oldsz and newsz need not be page-aligned, nor does newsz
// need to be less than oldsz.  oldsz can be larger than the actual
// process size.  Returns the new process size.
uint64
uvmdealloc(pagetable_t pagetable, pagetable_t kpagetable, uint64 oldsz, uint64 newsz)
{
    8020102a:	7179                	addi	sp,sp,-48
    8020102c:	f406                	sd	ra,40(sp)
    8020102e:	f022                	sd	s0,32(sp)
    80201030:	ec26                	sd	s1,24(sp)
    80201032:	e84a                	sd	s2,16(sp)
    80201034:	e44e                	sd	s3,8(sp)
    80201036:	e052                	sd	s4,0(sp)
    80201038:	1800                	addi	s0,sp,48
  if(newsz >= oldsz)
    return oldsz;
    8020103a:	8932                	mv	s2,a2
  if(newsz >= oldsz)
    8020103c:	02c6f063          	bgeu	a3,a2,8020105c <uvmdealloc+0x32>
    80201040:	89aa                	mv	s3,a0
    80201042:	852e                	mv	a0,a1
    80201044:	8936                	mv	s2,a3

  if(PGROUNDUP(newsz) < PGROUNDUP(oldsz)){
    80201046:	6785                	lui	a5,0x1
    80201048:	17fd                	addi	a5,a5,-1 # fff <_entry-0x801ff001>
    8020104a:	00f68a33          	add	s4,a3,a5
    8020104e:	777d                	lui	a4,0xfffff
    80201050:	00ea7a33          	and	s4,s4,a4
    80201054:	963e                	add	a2,a2,a5
    80201056:	8e79                	and	a2,a2,a4
    80201058:	00ca6b63          	bltu	s4,a2,8020106e <uvmdealloc+0x44>
    vmunmap(kpagetable, PGROUNDUP(newsz), npages, 0);
    vmunmap(pagetable, PGROUNDUP(newsz), npages, 1);
  }

  return newsz;
}
    8020105c:	854a                	mv	a0,s2
    8020105e:	70a2                	ld	ra,40(sp)
    80201060:	7402                	ld	s0,32(sp)
    80201062:	64e2                	ld	s1,24(sp)
    80201064:	6942                	ld	s2,16(sp)
    80201066:	69a2                	ld	s3,8(sp)
    80201068:	6a02                	ld	s4,0(sp)
    8020106a:	6145                	addi	sp,sp,48
    8020106c:	8082                	ret
    int npages = (PGROUNDUP(oldsz) - PGROUNDUP(newsz)) / PGSIZE;
    8020106e:	414604b3          	sub	s1,a2,s4
    80201072:	80b1                	srli	s1,s1,0xc
    vmunmap(kpagetable, PGROUNDUP(newsz), npages, 0);
    80201074:	2481                	sext.w	s1,s1
    80201076:	4681                	li	a3,0
    80201078:	8626                	mv	a2,s1
    8020107a:	85d2                	mv	a1,s4
    8020107c:	00000097          	auipc	ra,0x0
    80201080:	e1c080e7          	jalr	-484(ra) # 80200e98 <vmunmap>
    vmunmap(pagetable, PGROUNDUP(newsz), npages, 1);
    80201084:	4685                	li	a3,1
    80201086:	8626                	mv	a2,s1
    80201088:	85d2                	mv	a1,s4
    8020108a:	854e                	mv	a0,s3
    8020108c:	00000097          	auipc	ra,0x0
    80201090:	e0c080e7          	jalr	-500(ra) # 80200e98 <vmunmap>
    80201094:	b7e1                	j	8020105c <uvmdealloc+0x32>

0000000080201096 <uvmalloc>:
  if(newsz < oldsz)
    80201096:	0ec6e763          	bltu	a3,a2,80201184 <uvmalloc+0xee>
{
    8020109a:	7139                	addi	sp,sp,-64
    8020109c:	fc06                	sd	ra,56(sp)
    8020109e:	f822                	sd	s0,48(sp)
    802010a0:	f426                	sd	s1,40(sp)
    802010a2:	f04a                	sd	s2,32(sp)
    802010a4:	ec4e                	sd	s3,24(sp)
    802010a6:	e852                	sd	s4,16(sp)
    802010a8:	e456                	sd	s5,8(sp)
    802010aa:	e05a                	sd	s6,0(sp)
    802010ac:	0080                	addi	s0,sp,64
    802010ae:	8a2a                	mv	s4,a0
    802010b0:	8aae                	mv	s5,a1
    802010b2:	8b36                	mv	s6,a3
  oldsz = PGROUNDUP(oldsz);
    802010b4:	6785                	lui	a5,0x1
    802010b6:	17fd                	addi	a5,a5,-1 # fff <_entry-0x801ff001>
    802010b8:	963e                	add	a2,a2,a5
    802010ba:	77fd                	lui	a5,0xfffff
    802010bc:	00f679b3          	and	s3,a2,a5
  for(a = oldsz; a < newsz; a += PGSIZE){
    802010c0:	0cd9f463          	bgeu	s3,a3,80201188 <uvmalloc+0xf2>
    802010c4:	894e                	mv	s2,s3
    mem = kalloc();
    802010c6:	fffff097          	auipc	ra,0xfffff
    802010ca:	4c2080e7          	jalr	1218(ra) # 80200588 <kalloc>
    802010ce:	84aa                	mv	s1,a0
    if(mem == NULL){
    802010d0:	c129                	beqz	a0,80201112 <uvmalloc+0x7c>
    memset(mem, 0, PGSIZE);
    802010d2:	6605                	lui	a2,0x1
    802010d4:	4581                	li	a1,0
    802010d6:	fffff097          	auipc	ra,0xfffff
    802010da:	6ba080e7          	jalr	1722(ra) # 80200790 <memset>
    if (mappages(pagetable, a, PGSIZE, (uint64)mem, PTE_W|PTE_X|PTE_R|PTE_U) != 0) {
    802010de:	4779                	li	a4,30
    802010e0:	86a6                	mv	a3,s1
    802010e2:	6605                	lui	a2,0x1
    802010e4:	85ca                	mv	a1,s2
    802010e6:	8552                	mv	a0,s4
    802010e8:	00000097          	auipc	ra,0x0
    802010ec:	be6080e7          	jalr	-1050(ra) # 80200cce <mappages>
    802010f0:	e521                	bnez	a0,80201138 <uvmalloc+0xa2>
    if (mappages(kpagetable, a, PGSIZE, (uint64)mem, PTE_W|PTE_X|PTE_R) != 0){
    802010f2:	4739                	li	a4,14
    802010f4:	86a6                	mv	a3,s1
    802010f6:	6605                	lui	a2,0x1
    802010f8:	85ca                	mv	a1,s2
    802010fa:	8556                	mv	a0,s5
    802010fc:	00000097          	auipc	ra,0x0
    80201100:	bd2080e7          	jalr	-1070(ra) # 80200cce <mappages>
    80201104:	e929                	bnez	a0,80201156 <uvmalloc+0xc0>
  for(a = oldsz; a < newsz; a += PGSIZE){
    80201106:	6785                	lui	a5,0x1
    80201108:	993e                	add	s2,s2,a5
    8020110a:	fb696ee3          	bltu	s2,s6,802010c6 <uvmalloc+0x30>
  return newsz;
    8020110e:	855a                	mv	a0,s6
    80201110:	a811                	j	80201124 <uvmalloc+0x8e>
      uvmdealloc(pagetable, kpagetable, a, oldsz);
    80201112:	86ce                	mv	a3,s3
    80201114:	864a                	mv	a2,s2
    80201116:	85d6                	mv	a1,s5
    80201118:	8552                	mv	a0,s4
    8020111a:	00000097          	auipc	ra,0x0
    8020111e:	f10080e7          	jalr	-240(ra) # 8020102a <uvmdealloc>
      return 0;
    80201122:	4501                	li	a0,0
}
    80201124:	70e2                	ld	ra,56(sp)
    80201126:	7442                	ld	s0,48(sp)
    80201128:	74a2                	ld	s1,40(sp)
    8020112a:	7902                	ld	s2,32(sp)
    8020112c:	69e2                	ld	s3,24(sp)
    8020112e:	6a42                	ld	s4,16(sp)
    80201130:	6aa2                	ld	s5,8(sp)
    80201132:	6b02                	ld	s6,0(sp)
    80201134:	6121                	addi	sp,sp,64
    80201136:	8082                	ret
      kfree(mem);
    80201138:	8526                	mv	a0,s1
    8020113a:	fffff097          	auipc	ra,0xfffff
    8020113e:	306080e7          	jalr	774(ra) # 80200440 <kfree>
      uvmdealloc(pagetable, kpagetable, a, oldsz);
    80201142:	86ce                	mv	a3,s3
    80201144:	864a                	mv	a2,s2
    80201146:	85d6                	mv	a1,s5
    80201148:	8552                	mv	a0,s4
    8020114a:	00000097          	auipc	ra,0x0
    8020114e:	ee0080e7          	jalr	-288(ra) # 8020102a <uvmdealloc>
      return 0;
    80201152:	4501                	li	a0,0
    80201154:	bfc1                	j	80201124 <uvmalloc+0x8e>
      int npages = (a - oldsz) / PGSIZE;
    80201156:	41390633          	sub	a2,s2,s3
    8020115a:	8231                	srli	a2,a2,0xc
    8020115c:	0006049b          	sext.w	s1,a2
      vmunmap(pagetable, oldsz, npages + 1, 1);   // plus the page allocated above.
    80201160:	4685                	li	a3,1
    80201162:	2605                	addiw	a2,a2,1 # 1001 <_entry-0x801fefff>
    80201164:	85ce                	mv	a1,s3
    80201166:	8552                	mv	a0,s4
    80201168:	00000097          	auipc	ra,0x0
    8020116c:	d30080e7          	jalr	-720(ra) # 80200e98 <vmunmap>
      vmunmap(kpagetable, oldsz, npages, 0);
    80201170:	4681                	li	a3,0
    80201172:	8626                	mv	a2,s1
    80201174:	85ce                	mv	a1,s3
    80201176:	8556                	mv	a0,s5
    80201178:	00000097          	auipc	ra,0x0
    8020117c:	d20080e7          	jalr	-736(ra) # 80200e98 <vmunmap>
      return 0;
    80201180:	4501                	li	a0,0
    80201182:	b74d                	j	80201124 <uvmalloc+0x8e>
    return oldsz;
    80201184:	8532                	mv	a0,a2
}
    80201186:	8082                	ret
  return newsz;
    80201188:	8536                	mv	a0,a3
    8020118a:	bf69                	j	80201124 <uvmalloc+0x8e>

000000008020118c <freewalk>:

// Recursively free page-table pages.
// All leaf mappings must already have been removed.
void
freewalk(pagetable_t pagetable)
{
    8020118c:	7179                	addi	sp,sp,-48
    8020118e:	f406                	sd	ra,40(sp)
    80201190:	f022                	sd	s0,32(sp)
    80201192:	ec26                	sd	s1,24(sp)
    80201194:	e84a                	sd	s2,16(sp)
    80201196:	e44e                	sd	s3,8(sp)
    80201198:	e052                	sd	s4,0(sp)
    8020119a:	1800                	addi	s0,sp,48
    8020119c:	8a2a                	mv	s4,a0
  // there are 2^9 = 512 PTEs in a page table.
  for(int i = 0; i < 512; i++){
    8020119e:	84aa                	mv	s1,a0
    802011a0:	6905                	lui	s2,0x1
    802011a2:	992a                	add	s2,s2,a0
    pte_t pte = pagetable[i];
    if((pte & PTE_V) && (pte & (PTE_R|PTE_W|PTE_X)) == 0){
    802011a4:	4985                	li	s3,1
    802011a6:	a829                	j	802011c0 <freewalk+0x34>
      // this PTE points to a lower-level page table.
      uint64 child = PTE2PA(pte);
    802011a8:	83a9                	srli	a5,a5,0xa
      freewalk((pagetable_t)child);
    802011aa:	00c79513          	slli	a0,a5,0xc
    802011ae:	00000097          	auipc	ra,0x0
    802011b2:	fde080e7          	jalr	-34(ra) # 8020118c <freewalk>
      pagetable[i] = 0;
    802011b6:	0004b023          	sd	zero,0(s1)
  for(int i = 0; i < 512; i++){
    802011ba:	04a1                	addi	s1,s1,8
    802011bc:	03248163          	beq	s1,s2,802011de <freewalk+0x52>
    pte_t pte = pagetable[i];
    802011c0:	609c                	ld	a5,0(s1)
    if((pte & PTE_V) && (pte & (PTE_R|PTE_W|PTE_X)) == 0){
    802011c2:	00f7f713          	andi	a4,a5,15
    802011c6:	ff3701e3          	beq	a4,s3,802011a8 <freewalk+0x1c>
    } else if(pte & PTE_V){
    802011ca:	8b85                	andi	a5,a5,1
    802011cc:	d7fd                	beqz	a5,802011ba <freewalk+0x2e>
      panic("freewalk: leaf");
    802011ce:	00008517          	auipc	a0,0x8
    802011d2:	33a50513          	addi	a0,a0,826 # 80209508 <digits+0x188>
    802011d6:	fffff097          	auipc	ra,0xfffff
    802011da:	f6e080e7          	jalr	-146(ra) # 80200144 <panic>
    }
  }
  kfree((void*)pagetable);
    802011de:	8552                	mv	a0,s4
    802011e0:	fffff097          	auipc	ra,0xfffff
    802011e4:	260080e7          	jalr	608(ra) # 80200440 <kfree>
}
    802011e8:	70a2                	ld	ra,40(sp)
    802011ea:	7402                	ld	s0,32(sp)
    802011ec:	64e2                	ld	s1,24(sp)
    802011ee:	6942                	ld	s2,16(sp)
    802011f0:	69a2                	ld	s3,8(sp)
    802011f2:	6a02                	ld	s4,0(sp)
    802011f4:	6145                	addi	sp,sp,48
    802011f6:	8082                	ret

00000000802011f8 <uvmfree>:

// Free user memory pages,
// then free page-table pages.
void
uvmfree(pagetable_t pagetable, uint64 sz)
{
    802011f8:	1101                	addi	sp,sp,-32
    802011fa:	ec06                	sd	ra,24(sp)
    802011fc:	e822                	sd	s0,16(sp)
    802011fe:	e426                	sd	s1,8(sp)
    80201200:	1000                	addi	s0,sp,32
    80201202:	84aa                	mv	s1,a0
  if(sz > 0)
    80201204:	e999                	bnez	a1,8020121a <uvmfree+0x22>
    vmunmap(pagetable, 0, PGROUNDUP(sz)/PGSIZE, 1);
  freewalk(pagetable);
    80201206:	8526                	mv	a0,s1
    80201208:	00000097          	auipc	ra,0x0
    8020120c:	f84080e7          	jalr	-124(ra) # 8020118c <freewalk>
}
    80201210:	60e2                	ld	ra,24(sp)
    80201212:	6442                	ld	s0,16(sp)
    80201214:	64a2                	ld	s1,8(sp)
    80201216:	6105                	addi	sp,sp,32
    80201218:	8082                	ret
    vmunmap(pagetable, 0, PGROUNDUP(sz)/PGSIZE, 1);
    8020121a:	6785                	lui	a5,0x1
    8020121c:	17fd                	addi	a5,a5,-1 # fff <_entry-0x801ff001>
    8020121e:	95be                	add	a1,a1,a5
    80201220:	4685                	li	a3,1
    80201222:	00c5d613          	srli	a2,a1,0xc
    80201226:	4581                	li	a1,0
    80201228:	00000097          	auipc	ra,0x0
    8020122c:	c70080e7          	jalr	-912(ra) # 80200e98 <vmunmap>
    80201230:	bfd9                	j	80201206 <uvmfree+0xe>

0000000080201232 <uvmcopy>:
  pte_t *pte;
  uint64 pa, i = 0, ki = 0;
  uint flags;
  char *mem;

  while (i < sz){
    80201232:	10068563          	beqz	a3,8020133c <uvmcopy+0x10a>
{
    80201236:	715d                	addi	sp,sp,-80
    80201238:	e486                	sd	ra,72(sp)
    8020123a:	e0a2                	sd	s0,64(sp)
    8020123c:	fc26                	sd	s1,56(sp)
    8020123e:	f84a                	sd	s2,48(sp)
    80201240:	f44e                	sd	s3,40(sp)
    80201242:	f052                	sd	s4,32(sp)
    80201244:	ec56                	sd	s5,24(sp)
    80201246:	e85a                	sd	s6,16(sp)
    80201248:	e45e                	sd	s7,8(sp)
    8020124a:	e062                	sd	s8,0(sp)
    8020124c:	0880                	addi	s0,sp,80
    8020124e:	8baa                	mv	s7,a0
    80201250:	8a2e                	mv	s4,a1
    80201252:	8b32                	mv	s6,a2
    80201254:	8ab6                	mv	s5,a3
  uint64 pa, i = 0, ki = 0;
    80201256:	4981                	li	s3,0
    80201258:	a011                	j	8020125c <uvmcopy+0x2a>
    memmove(mem, (char*)pa, PGSIZE);
    if(mappages(new, i, PGSIZE, (uint64)mem, flags) != 0) {
      kfree(mem);
      goto err;
    }
    i += PGSIZE;
    8020125a:	89e2                	mv	s3,s8
    if((pte = walk(old, i, 0)) == NULL)
    8020125c:	4601                	li	a2,0
    8020125e:	85ce                	mv	a1,s3
    80201260:	855e                	mv	a0,s7
    80201262:	00000097          	auipc	ra,0x0
    80201266:	90c080e7          	jalr	-1780(ra) # 80200b6e <walk>
    8020126a:	c135                	beqz	a0,802012ce <uvmcopy+0x9c>
    if((*pte & PTE_V) == 0)
    8020126c:	6118                	ld	a4,0(a0)
    8020126e:	00177793          	andi	a5,a4,1
    80201272:	c7b5                	beqz	a5,802012de <uvmcopy+0xac>
    pa = PTE2PA(*pte);
    80201274:	00a75593          	srli	a1,a4,0xa
    80201278:	00c59c13          	slli	s8,a1,0xc
    flags = PTE_FLAGS(*pte);
    8020127c:	3ff77493          	andi	s1,a4,1023
    if((mem = kalloc()) == NULL)
    80201280:	fffff097          	auipc	ra,0xfffff
    80201284:	308080e7          	jalr	776(ra) # 80200588 <kalloc>
    80201288:	892a                	mv	s2,a0
    8020128a:	c92d                	beqz	a0,802012fc <uvmcopy+0xca>
    memmove(mem, (char*)pa, PGSIZE);
    8020128c:	6605                	lui	a2,0x1
    8020128e:	85e2                	mv	a1,s8
    80201290:	fffff097          	auipc	ra,0xfffff
    80201294:	55c080e7          	jalr	1372(ra) # 802007ec <memmove>
    if(mappages(new, i, PGSIZE, (uint64)mem, flags) != 0) {
    80201298:	2481                	sext.w	s1,s1
    8020129a:	8726                	mv	a4,s1
    8020129c:	86ca                	mv	a3,s2
    8020129e:	6605                	lui	a2,0x1
    802012a0:	85ce                	mv	a1,s3
    802012a2:	8552                	mv	a0,s4
    802012a4:	00000097          	auipc	ra,0x0
    802012a8:	a2a080e7          	jalr	-1494(ra) # 80200cce <mappages>
    802012ac:	e129                	bnez	a0,802012ee <uvmcopy+0xbc>
    i += PGSIZE;
    802012ae:	6c05                	lui	s8,0x1
    802012b0:	9c4e                	add	s8,s8,s3
    if(mappages(knew, ki, PGSIZE, (uint64)mem, flags & ~PTE_U) != 0){
    802012b2:	3ef4f713          	andi	a4,s1,1007
    802012b6:	86ca                	mv	a3,s2
    802012b8:	6605                	lui	a2,0x1
    802012ba:	85ce                	mv	a1,s3
    802012bc:	855a                	mv	a0,s6
    802012be:	00000097          	auipc	ra,0x0
    802012c2:	a10080e7          	jalr	-1520(ra) # 80200cce <mappages>
    802012c6:	ed05                	bnez	a0,802012fe <uvmcopy+0xcc>
  while (i < sz){
    802012c8:	f95c69e3          	bltu	s8,s5,8020125a <uvmcopy+0x28>
    802012cc:	a8a1                	j	80201324 <uvmcopy+0xf2>
      panic("uvmcopy: pte should exist");
    802012ce:	00008517          	auipc	a0,0x8
    802012d2:	24a50513          	addi	a0,a0,586 # 80209518 <digits+0x198>
    802012d6:	fffff097          	auipc	ra,0xfffff
    802012da:	e6e080e7          	jalr	-402(ra) # 80200144 <panic>
      panic("uvmcopy: page not present");
    802012de:	00008517          	auipc	a0,0x8
    802012e2:	25a50513          	addi	a0,a0,602 # 80209538 <digits+0x1b8>
    802012e6:	fffff097          	auipc	ra,0xfffff
    802012ea:	e5e080e7          	jalr	-418(ra) # 80200144 <panic>
      kfree(mem);
    802012ee:	854a                	mv	a0,s2
    802012f0:	fffff097          	auipc	ra,0xfffff
    802012f4:	150080e7          	jalr	336(ra) # 80200440 <kfree>
      goto err;
    802012f8:	8c4e                	mv	s8,s3
    802012fa:	a011                	j	802012fe <uvmcopy+0xcc>
    802012fc:	8c4e                	mv	s8,s3
    ki += PGSIZE;
  }
  return 0;

 err:
  vmunmap(knew, 0, ki / PGSIZE, 0);
    802012fe:	4681                	li	a3,0
    80201300:	00c9d613          	srli	a2,s3,0xc
    80201304:	4581                	li	a1,0
    80201306:	855a                	mv	a0,s6
    80201308:	00000097          	auipc	ra,0x0
    8020130c:	b90080e7          	jalr	-1136(ra) # 80200e98 <vmunmap>
  vmunmap(new, 0, i / PGSIZE, 1);
    80201310:	4685                	li	a3,1
    80201312:	00cc5613          	srli	a2,s8,0xc
    80201316:	4581                	li	a1,0
    80201318:	8552                	mv	a0,s4
    8020131a:	00000097          	auipc	ra,0x0
    8020131e:	b7e080e7          	jalr	-1154(ra) # 80200e98 <vmunmap>
  return -1;
    80201322:	557d                	li	a0,-1
}
    80201324:	60a6                	ld	ra,72(sp)
    80201326:	6406                	ld	s0,64(sp)
    80201328:	74e2                	ld	s1,56(sp)
    8020132a:	7942                	ld	s2,48(sp)
    8020132c:	79a2                	ld	s3,40(sp)
    8020132e:	7a02                	ld	s4,32(sp)
    80201330:	6ae2                	ld	s5,24(sp)
    80201332:	6b42                	ld	s6,16(sp)
    80201334:	6ba2                	ld	s7,8(sp)
    80201336:	6c02                	ld	s8,0(sp)
    80201338:	6161                	addi	sp,sp,80
    8020133a:	8082                	ret
  return 0;
    8020133c:	4501                	li	a0,0
}
    8020133e:	8082                	ret

0000000080201340 <uvmclear>:

// mark a PTE invalid for user access.
// used by exec for the user stack guard page.
void
uvmclear(pagetable_t pagetable, uint64 va)
{
    80201340:	1141                	addi	sp,sp,-16
    80201342:	e406                	sd	ra,8(sp)
    80201344:	e022                	sd	s0,0(sp)
    80201346:	0800                	addi	s0,sp,16
  pte_t *pte;
  
  pte = walk(pagetable, va, 0);
    80201348:	4601                	li	a2,0
    8020134a:	00000097          	auipc	ra,0x0
    8020134e:	824080e7          	jalr	-2012(ra) # 80200b6e <walk>
  if(pte == NULL)
    80201352:	c901                	beqz	a0,80201362 <uvmclear+0x22>
    panic("uvmclear");
  *pte &= ~PTE_U;
    80201354:	611c                	ld	a5,0(a0)
    80201356:	9bbd                	andi	a5,a5,-17
    80201358:	e11c                	sd	a5,0(a0)
}
    8020135a:	60a2                	ld	ra,8(sp)
    8020135c:	6402                	ld	s0,0(sp)
    8020135e:	0141                	addi	sp,sp,16
    80201360:	8082                	ret
    panic("uvmclear");
    80201362:	00008517          	auipc	a0,0x8
    80201366:	1f650513          	addi	a0,a0,502 # 80209558 <digits+0x1d8>
    8020136a:	fffff097          	auipc	ra,0xfffff
    8020136e:	dda080e7          	jalr	-550(ra) # 80200144 <panic>

0000000080201372 <copyout>:
int
copyout(pagetable_t pagetable, uint64 dstva, char *src, uint64 len)
{
  uint64 n, va0, pa0;

  while(len > 0){
    80201372:	c6bd                	beqz	a3,802013e0 <copyout+0x6e>
{
    80201374:	715d                	addi	sp,sp,-80
    80201376:	e486                	sd	ra,72(sp)
    80201378:	e0a2                	sd	s0,64(sp)
    8020137a:	fc26                	sd	s1,56(sp)
    8020137c:	f84a                	sd	s2,48(sp)
    8020137e:	f44e                	sd	s3,40(sp)
    80201380:	f052                	sd	s4,32(sp)
    80201382:	ec56                	sd	s5,24(sp)
    80201384:	e85a                	sd	s6,16(sp)
    80201386:	e45e                	sd	s7,8(sp)
    80201388:	e062                	sd	s8,0(sp)
    8020138a:	0880                	addi	s0,sp,80
    8020138c:	8b2a                	mv	s6,a0
    8020138e:	8c2e                	mv	s8,a1
    80201390:	8a32                	mv	s4,a2
    80201392:	89b6                	mv	s3,a3
    va0 = PGROUNDDOWN(dstva);
    80201394:	7bfd                	lui	s7,0xfffff
    pa0 = walkaddr(pagetable, va0);
    if(pa0 == NULL)
      return -1;
    n = PGSIZE - (dstva - va0);
    80201396:	6a85                	lui	s5,0x1
    80201398:	a015                	j	802013bc <copyout+0x4a>
    if(n > len)
      n = len;
    memmove((void *)(pa0 + (dstva - va0)), src, n);
    8020139a:	9562                	add	a0,a0,s8
    8020139c:	0004861b          	sext.w	a2,s1
    802013a0:	85d2                	mv	a1,s4
    802013a2:	41250533          	sub	a0,a0,s2
    802013a6:	fffff097          	auipc	ra,0xfffff
    802013aa:	446080e7          	jalr	1094(ra) # 802007ec <memmove>

    len -= n;
    802013ae:	409989b3          	sub	s3,s3,s1
    src += n;
    802013b2:	9a26                	add	s4,s4,s1
    dstva = va0 + PGSIZE;
    802013b4:	01590c33          	add	s8,s2,s5
  while(len > 0){
    802013b8:	02098263          	beqz	s3,802013dc <copyout+0x6a>
    va0 = PGROUNDDOWN(dstva);
    802013bc:	017c7933          	and	s2,s8,s7
    pa0 = walkaddr(pagetable, va0);
    802013c0:	85ca                	mv	a1,s2
    802013c2:	855a                	mv	a0,s6
    802013c4:	00000097          	auipc	ra,0x0
    802013c8:	850080e7          	jalr	-1968(ra) # 80200c14 <walkaddr>
    if(pa0 == NULL)
    802013cc:	cd01                	beqz	a0,802013e4 <copyout+0x72>
    n = PGSIZE - (dstva - va0);
    802013ce:	418904b3          	sub	s1,s2,s8
    802013d2:	94d6                	add	s1,s1,s5
    802013d4:	fc99f3e3          	bgeu	s3,s1,8020139a <copyout+0x28>
    802013d8:	84ce                	mv	s1,s3
    802013da:	b7c1                	j	8020139a <copyout+0x28>
  }
  return 0;
    802013dc:	4501                	li	a0,0
    802013de:	a021                	j	802013e6 <copyout+0x74>
    802013e0:	4501                	li	a0,0
}
    802013e2:	8082                	ret
      return -1;
    802013e4:	557d                	li	a0,-1
}
    802013e6:	60a6                	ld	ra,72(sp)
    802013e8:	6406                	ld	s0,64(sp)
    802013ea:	74e2                	ld	s1,56(sp)
    802013ec:	7942                	ld	s2,48(sp)
    802013ee:	79a2                	ld	s3,40(sp)
    802013f0:	7a02                	ld	s4,32(sp)
    802013f2:	6ae2                	ld	s5,24(sp)
    802013f4:	6b42                	ld	s6,16(sp)
    802013f6:	6ba2                	ld	s7,8(sp)
    802013f8:	6c02                	ld	s8,0(sp)
    802013fa:	6161                	addi	sp,sp,80
    802013fc:	8082                	ret

00000000802013fe <copyout2>:

int
copyout2(uint64 dstva, char *src, uint64 len)
{
    802013fe:	7179                	addi	sp,sp,-48
    80201400:	f406                	sd	ra,40(sp)
    80201402:	f022                	sd	s0,32(sp)
    80201404:	ec26                	sd	s1,24(sp)
    80201406:	e84a                	sd	s2,16(sp)
    80201408:	e44e                	sd	s3,8(sp)
    8020140a:	1800                	addi	s0,sp,48
    8020140c:	84aa                	mv	s1,a0
    8020140e:	89ae                	mv	s3,a1
    80201410:	8932                	mv	s2,a2
  uint64 sz = myproc()->sz;
    80201412:	00000097          	auipc	ra,0x0
    80201416:	6c6080e7          	jalr	1734(ra) # 80201ad8 <myproc>
    8020141a:	653c                	ld	a5,72(a0)
  if (dstva + len > sz || dstva >= sz) {
    8020141c:	01248733          	add	a4,s1,s2
    80201420:	02e7e463          	bltu	a5,a4,80201448 <copyout2+0x4a>
    80201424:	02f4f463          	bgeu	s1,a5,8020144c <copyout2+0x4e>
    return -1;
  }
  memmove((void *)dstva, src, len);
    80201428:	0009061b          	sext.w	a2,s2
    8020142c:	85ce                	mv	a1,s3
    8020142e:	8526                	mv	a0,s1
    80201430:	fffff097          	auipc	ra,0xfffff
    80201434:	3bc080e7          	jalr	956(ra) # 802007ec <memmove>
  return 0;
    80201438:	4501                	li	a0,0
}
    8020143a:	70a2                	ld	ra,40(sp)
    8020143c:	7402                	ld	s0,32(sp)
    8020143e:	64e2                	ld	s1,24(sp)
    80201440:	6942                	ld	s2,16(sp)
    80201442:	69a2                	ld	s3,8(sp)
    80201444:	6145                	addi	sp,sp,48
    80201446:	8082                	ret
    return -1;
    80201448:	557d                	li	a0,-1
    8020144a:	bfc5                	j	8020143a <copyout2+0x3c>
    8020144c:	557d                	li	a0,-1
    8020144e:	b7f5                	j	8020143a <copyout2+0x3c>

0000000080201450 <copyin>:
int
copyin(pagetable_t pagetable, char *dst, uint64 srcva, uint64 len)
{
  uint64 n, va0, pa0;

  while(len > 0){
    80201450:	caa5                	beqz	a3,802014c0 <copyin+0x70>
{
    80201452:	715d                	addi	sp,sp,-80
    80201454:	e486                	sd	ra,72(sp)
    80201456:	e0a2                	sd	s0,64(sp)
    80201458:	fc26                	sd	s1,56(sp)
    8020145a:	f84a                	sd	s2,48(sp)
    8020145c:	f44e                	sd	s3,40(sp)
    8020145e:	f052                	sd	s4,32(sp)
    80201460:	ec56                	sd	s5,24(sp)
    80201462:	e85a                	sd	s6,16(sp)
    80201464:	e45e                	sd	s7,8(sp)
    80201466:	e062                	sd	s8,0(sp)
    80201468:	0880                	addi	s0,sp,80
    8020146a:	8b2a                	mv	s6,a0
    8020146c:	8a2e                	mv	s4,a1
    8020146e:	8c32                	mv	s8,a2
    80201470:	89b6                	mv	s3,a3
    va0 = PGROUNDDOWN(srcva);
    80201472:	7bfd                	lui	s7,0xfffff
    pa0 = walkaddr(pagetable, va0);
    if(pa0 == NULL)
      return -1;
    n = PGSIZE - (srcva - va0);
    80201474:	6a85                	lui	s5,0x1
    80201476:	a01d                	j	8020149c <copyin+0x4c>
    if(n > len)
      n = len;
    memmove(dst, (void *)(pa0 + (srcva - va0)), n);
    80201478:	018505b3          	add	a1,a0,s8
    8020147c:	0004861b          	sext.w	a2,s1
    80201480:	412585b3          	sub	a1,a1,s2
    80201484:	8552                	mv	a0,s4
    80201486:	fffff097          	auipc	ra,0xfffff
    8020148a:	366080e7          	jalr	870(ra) # 802007ec <memmove>

    len -= n;
    8020148e:	409989b3          	sub	s3,s3,s1
    dst += n;
    80201492:	9a26                	add	s4,s4,s1
    srcva = va0 + PGSIZE;
    80201494:	01590c33          	add	s8,s2,s5
  while(len > 0){
    80201498:	02098263          	beqz	s3,802014bc <copyin+0x6c>
    va0 = PGROUNDDOWN(srcva);
    8020149c:	017c7933          	and	s2,s8,s7
    pa0 = walkaddr(pagetable, va0);
    802014a0:	85ca                	mv	a1,s2
    802014a2:	855a                	mv	a0,s6
    802014a4:	fffff097          	auipc	ra,0xfffff
    802014a8:	770080e7          	jalr	1904(ra) # 80200c14 <walkaddr>
    if(pa0 == NULL)
    802014ac:	cd01                	beqz	a0,802014c4 <copyin+0x74>
    n = PGSIZE - (srcva - va0);
    802014ae:	418904b3          	sub	s1,s2,s8
    802014b2:	94d6                	add	s1,s1,s5
    802014b4:	fc99f2e3          	bgeu	s3,s1,80201478 <copyin+0x28>
    802014b8:	84ce                	mv	s1,s3
    802014ba:	bf7d                	j	80201478 <copyin+0x28>
  }
  return 0;
    802014bc:	4501                	li	a0,0
    802014be:	a021                	j	802014c6 <copyin+0x76>
    802014c0:	4501                	li	a0,0
}
    802014c2:	8082                	ret
      return -1;
    802014c4:	557d                	li	a0,-1
}
    802014c6:	60a6                	ld	ra,72(sp)
    802014c8:	6406                	ld	s0,64(sp)
    802014ca:	74e2                	ld	s1,56(sp)
    802014cc:	7942                	ld	s2,48(sp)
    802014ce:	79a2                	ld	s3,40(sp)
    802014d0:	7a02                	ld	s4,32(sp)
    802014d2:	6ae2                	ld	s5,24(sp)
    802014d4:	6b42                	ld	s6,16(sp)
    802014d6:	6ba2                	ld	s7,8(sp)
    802014d8:	6c02                	ld	s8,0(sp)
    802014da:	6161                	addi	sp,sp,80
    802014dc:	8082                	ret

00000000802014de <copyin2>:

int
copyin2(char *dst, uint64 srcva, uint64 len)
{
    802014de:	7179                	addi	sp,sp,-48
    802014e0:	f406                	sd	ra,40(sp)
    802014e2:	f022                	sd	s0,32(sp)
    802014e4:	ec26                	sd	s1,24(sp)
    802014e6:	e84a                	sd	s2,16(sp)
    802014e8:	e44e                	sd	s3,8(sp)
    802014ea:	1800                	addi	s0,sp,48
    802014ec:	89aa                	mv	s3,a0
    802014ee:	84ae                	mv	s1,a1
    802014f0:	8932                	mv	s2,a2
  uint64 sz = myproc()->sz;
    802014f2:	00000097          	auipc	ra,0x0
    802014f6:	5e6080e7          	jalr	1510(ra) # 80201ad8 <myproc>
    802014fa:	653c                	ld	a5,72(a0)
  if (srcva + len > sz || srcva >= sz) {
    802014fc:	01248733          	add	a4,s1,s2
    80201500:	02e7e463          	bltu	a5,a4,80201528 <copyin2+0x4a>
    80201504:	02f4f463          	bgeu	s1,a5,8020152c <copyin2+0x4e>
    return -1;
  }
  memmove(dst, (void *)srcva, len);
    80201508:	0009061b          	sext.w	a2,s2
    8020150c:	85a6                	mv	a1,s1
    8020150e:	854e                	mv	a0,s3
    80201510:	fffff097          	auipc	ra,0xfffff
    80201514:	2dc080e7          	jalr	732(ra) # 802007ec <memmove>
  return 0;
    80201518:	4501                	li	a0,0
}
    8020151a:	70a2                	ld	ra,40(sp)
    8020151c:	7402                	ld	s0,32(sp)
    8020151e:	64e2                	ld	s1,24(sp)
    80201520:	6942                	ld	s2,16(sp)
    80201522:	69a2                	ld	s3,8(sp)
    80201524:	6145                	addi	sp,sp,48
    80201526:	8082                	ret
    return -1;
    80201528:	557d                	li	a0,-1
    8020152a:	bfc5                	j	8020151a <copyin2+0x3c>
    8020152c:	557d                	li	a0,-1
    8020152e:	b7f5                	j	8020151a <copyin2+0x3c>

0000000080201530 <copyinstr>:
copyinstr(pagetable_t pagetable, char *dst, uint64 srcva, uint64 max)
{
  uint64 n, va0, pa0;
  int got_null = 0;

  while(got_null == 0 && max > 0){
    80201530:	c2dd                	beqz	a3,802015d6 <copyinstr+0xa6>
{
    80201532:	715d                	addi	sp,sp,-80
    80201534:	e486                	sd	ra,72(sp)
    80201536:	e0a2                	sd	s0,64(sp)
    80201538:	fc26                	sd	s1,56(sp)
    8020153a:	f84a                	sd	s2,48(sp)
    8020153c:	f44e                	sd	s3,40(sp)
    8020153e:	f052                	sd	s4,32(sp)
    80201540:	ec56                	sd	s5,24(sp)
    80201542:	e85a                	sd	s6,16(sp)
    80201544:	e45e                	sd	s7,8(sp)
    80201546:	0880                	addi	s0,sp,80
    80201548:	8a2a                	mv	s4,a0
    8020154a:	8b2e                	mv	s6,a1
    8020154c:	8bb2                	mv	s7,a2
    8020154e:	84b6                	mv	s1,a3
    va0 = PGROUNDDOWN(srcva);
    80201550:	7afd                	lui	s5,0xfffff
    pa0 = walkaddr(pagetable, va0);
    if(pa0 == NULL)
      return -1;
    n = PGSIZE - (srcva - va0);
    80201552:	6985                	lui	s3,0x1
    80201554:	a02d                	j	8020157e <copyinstr+0x4e>
      n = max;

    char *p = (char *) (pa0 + (srcva - va0));
    while(n > 0){
      if(*p == '\0'){
        *dst = '\0';
    80201556:	00078023          	sb	zero,0(a5)
    8020155a:	4785                	li	a5,1
      dst++;
    }

    srcva = va0 + PGSIZE;
  }
  if(got_null){
    8020155c:	37fd                	addiw	a5,a5,-1
    8020155e:	0007851b          	sext.w	a0,a5
    return 0;
  } else {
    return -1;
  }
}
    80201562:	60a6                	ld	ra,72(sp)
    80201564:	6406                	ld	s0,64(sp)
    80201566:	74e2                	ld	s1,56(sp)
    80201568:	7942                	ld	s2,48(sp)
    8020156a:	79a2                	ld	s3,40(sp)
    8020156c:	7a02                	ld	s4,32(sp)
    8020156e:	6ae2                	ld	s5,24(sp)
    80201570:	6b42                	ld	s6,16(sp)
    80201572:	6ba2                	ld	s7,8(sp)
    80201574:	6161                	addi	sp,sp,80
    80201576:	8082                	ret
    srcva = va0 + PGSIZE;
    80201578:	01390bb3          	add	s7,s2,s3
  while(got_null == 0 && max > 0){
    8020157c:	c8a9                	beqz	s1,802015ce <copyinstr+0x9e>
    va0 = PGROUNDDOWN(srcva);
    8020157e:	015bf933          	and	s2,s7,s5
    pa0 = walkaddr(pagetable, va0);
    80201582:	85ca                	mv	a1,s2
    80201584:	8552                	mv	a0,s4
    80201586:	fffff097          	auipc	ra,0xfffff
    8020158a:	68e080e7          	jalr	1678(ra) # 80200c14 <walkaddr>
    if(pa0 == NULL)
    8020158e:	c131                	beqz	a0,802015d2 <copyinstr+0xa2>
    n = PGSIZE - (srcva - va0);
    80201590:	417906b3          	sub	a3,s2,s7
    80201594:	96ce                	add	a3,a3,s3
    80201596:	00d4f363          	bgeu	s1,a3,8020159c <copyinstr+0x6c>
    8020159a:	86a6                	mv	a3,s1
    char *p = (char *) (pa0 + (srcva - va0));
    8020159c:	955e                	add	a0,a0,s7
    8020159e:	41250533          	sub	a0,a0,s2
    while(n > 0){
    802015a2:	daf9                	beqz	a3,80201578 <copyinstr+0x48>
    802015a4:	87da                	mv	a5,s6
      if(*p == '\0'){
    802015a6:	41650633          	sub	a2,a0,s6
    802015aa:	fff48593          	addi	a1,s1,-1
    802015ae:	95da                	add	a1,a1,s6
    while(n > 0){
    802015b0:	96da                	add	a3,a3,s6
      if(*p == '\0'){
    802015b2:	00f60733          	add	a4,a2,a5
    802015b6:	00074703          	lbu	a4,0(a4) # fffffffffffff000 <ebss_clear+0xffffffff7fda7000>
    802015ba:	df51                	beqz	a4,80201556 <copyinstr+0x26>
        *dst = *p;
    802015bc:	00e78023          	sb	a4,0(a5)
      --max;
    802015c0:	40f584b3          	sub	s1,a1,a5
      dst++;
    802015c4:	0785                	addi	a5,a5,1
    while(n > 0){
    802015c6:	fed796e3          	bne	a5,a3,802015b2 <copyinstr+0x82>
      dst++;
    802015ca:	8b3e                	mv	s6,a5
    802015cc:	b775                	j	80201578 <copyinstr+0x48>
    802015ce:	4781                	li	a5,0
    802015d0:	b771                	j	8020155c <copyinstr+0x2c>
      return -1;
    802015d2:	557d                	li	a0,-1
    802015d4:	b779                	j	80201562 <copyinstr+0x32>
  int got_null = 0;
    802015d6:	4781                	li	a5,0
  if(got_null){
    802015d8:	37fd                	addiw	a5,a5,-1
    802015da:	0007851b          	sext.w	a0,a5
}
    802015de:	8082                	ret

00000000802015e0 <copyinstr2>:

int
copyinstr2(char *dst, uint64 srcva, uint64 max)
{
    802015e0:	7179                	addi	sp,sp,-48
    802015e2:	f406                	sd	ra,40(sp)
    802015e4:	f022                	sd	s0,32(sp)
    802015e6:	ec26                	sd	s1,24(sp)
    802015e8:	e84a                	sd	s2,16(sp)
    802015ea:	e44e                	sd	s3,8(sp)
    802015ec:	1800                	addi	s0,sp,48
    802015ee:	89aa                	mv	s3,a0
    802015f0:	84ae                	mv	s1,a1
    802015f2:	8932                	mv	s2,a2
  int got_null = 0;
  uint64 sz = myproc()->sz;
    802015f4:	00000097          	auipc	ra,0x0
    802015f8:	4e4080e7          	jalr	1252(ra) # 80201ad8 <myproc>
    802015fc:	6534                	ld	a3,72(a0)
  while(srcva < sz && max > 0){
    802015fe:	04d4f363          	bgeu	s1,a3,80201644 <copyinstr2+0x64>
    80201602:	04090363          	beqz	s2,80201648 <copyinstr2+0x68>
    80201606:	01298633          	add	a2,s3,s2
    8020160a:	8e85                	sub	a3,a3,s1
    8020160c:	96ce                	add	a3,a3,s3
    8020160e:	87ce                	mv	a5,s3
    char *p = (char *)srcva;
    if(*p == '\0'){
    80201610:	413485b3          	sub	a1,s1,s3
    80201614:	00b78733          	add	a4,a5,a1
    80201618:	00074703          	lbu	a4,0(a4)
    8020161c:	cb11                	beqz	a4,80201630 <copyinstr2+0x50>
      *dst = '\0';
      got_null = 1;
      break;
    } else {
      *dst = *p;
    8020161e:	00e78023          	sb	a4,0(a5)
    }
    --max;
    srcva++;
    dst++;
    80201622:	0785                	addi	a5,a5,1
  while(srcva < sz && max > 0){
    80201624:	02d78463          	beq	a5,a3,8020164c <copyinstr2+0x6c>
    80201628:	fec796e3          	bne	a5,a2,80201614 <copyinstr2+0x34>
  }
  if(got_null){
    return 0;
  } else {
    return -1;
    8020162c:	557d                	li	a0,-1
    8020162e:	a021                	j	80201636 <copyinstr2+0x56>
      *dst = '\0';
    80201630:	00078023          	sb	zero,0(a5)
    return 0;
    80201634:	4501                	li	a0,0
  }
}
    80201636:	70a2                	ld	ra,40(sp)
    80201638:	7402                	ld	s0,32(sp)
    8020163a:	64e2                	ld	s1,24(sp)
    8020163c:	6942                	ld	s2,16(sp)
    8020163e:	69a2                	ld	s3,8(sp)
    80201640:	6145                	addi	sp,sp,48
    80201642:	8082                	ret
    return -1;
    80201644:	557d                	li	a0,-1
    80201646:	bfc5                	j	80201636 <copyinstr2+0x56>
    80201648:	557d                	li	a0,-1
    8020164a:	b7f5                	j	80201636 <copyinstr2+0x56>
    8020164c:	557d                	li	a0,-1
    8020164e:	b7e5                	j	80201636 <copyinstr2+0x56>

0000000080201650 <kfreewalk>:
}

// only free page table, not physical pages
void
kfreewalk(pagetable_t kpt)
{
    80201650:	7179                	addi	sp,sp,-48
    80201652:	f406                	sd	ra,40(sp)
    80201654:	f022                	sd	s0,32(sp)
    80201656:	ec26                	sd	s1,24(sp)
    80201658:	e84a                	sd	s2,16(sp)
    8020165a:	e44e                	sd	s3,8(sp)
    8020165c:	e052                	sd	s4,0(sp)
    8020165e:	1800                	addi	s0,sp,48
    80201660:	8a2a                	mv	s4,a0
  for (int i = 0; i < 512; i++) {
    80201662:	84aa                	mv	s1,a0
    80201664:	6905                	lui	s2,0x1
    80201666:	992a                	add	s2,s2,a0
    pte_t pte = kpt[i];
    if ((pte & PTE_V) && (pte & (PTE_R|PTE_W|PTE_X)) == 0) {
    80201668:	4985                	li	s3,1
    8020166a:	a829                	j	80201684 <kfreewalk+0x34>
      kfreewalk((pagetable_t) PTE2PA(pte));
    8020166c:	83a9                	srli	a5,a5,0xa
    8020166e:	00c79513          	slli	a0,a5,0xc
    80201672:	00000097          	auipc	ra,0x0
    80201676:	fde080e7          	jalr	-34(ra) # 80201650 <kfreewalk>
      kpt[i] = 0;
    8020167a:	0004b023          	sd	zero,0(s1)
  for (int i = 0; i < 512; i++) {
    8020167e:	04a1                	addi	s1,s1,8
    80201680:	01248963          	beq	s1,s2,80201692 <kfreewalk+0x42>
    pte_t pte = kpt[i];
    80201684:	609c                	ld	a5,0(s1)
    if ((pte & PTE_V) && (pte & (PTE_R|PTE_W|PTE_X)) == 0) {
    80201686:	00f7f713          	andi	a4,a5,15
    8020168a:	ff3701e3          	beq	a4,s3,8020166c <kfreewalk+0x1c>
    } else if (pte & PTE_V) {
    8020168e:	8b85                	andi	a5,a5,1
    80201690:	d7fd                	beqz	a5,8020167e <kfreewalk+0x2e>
      break;
    }
  }
  kfree((void *) kpt);
    80201692:	8552                	mv	a0,s4
    80201694:	fffff097          	auipc	ra,0xfffff
    80201698:	dac080e7          	jalr	-596(ra) # 80200440 <kfree>
}
    8020169c:	70a2                	ld	ra,40(sp)
    8020169e:	7402                	ld	s0,32(sp)
    802016a0:	64e2                	ld	s1,24(sp)
    802016a2:	6942                	ld	s2,16(sp)
    802016a4:	69a2                	ld	s3,8(sp)
    802016a6:	6a02                	ld	s4,0(sp)
    802016a8:	6145                	addi	sp,sp,48
    802016aa:	8082                	ret

00000000802016ac <kvmfreeusr>:

void
kvmfreeusr(pagetable_t kpt)
{
    802016ac:	1101                	addi	sp,sp,-32
    802016ae:	ec06                	sd	ra,24(sp)
    802016b0:	e822                	sd	s0,16(sp)
    802016b2:	e426                	sd	s1,8(sp)
    802016b4:	1000                	addi	s0,sp,32
    802016b6:	84aa                	mv	s1,a0
  pte_t pte;
  for (int i = 0; i < PX(2, MAXUVA); i++) {
    pte = kpt[i];
    802016b8:	6108                	ld	a0,0(a0)
    if ((pte & PTE_V) && (pte & (PTE_R|PTE_W|PTE_X)) == 0) {
    802016ba:	00f57713          	andi	a4,a0,15
    802016be:	4785                	li	a5,1
    802016c0:	00f70d63          	beq	a4,a5,802016da <kvmfreeusr+0x2e>
    pte = kpt[i];
    802016c4:	6488                	ld	a0,8(s1)
    if ((pte & PTE_V) && (pte & (PTE_R|PTE_W|PTE_X)) == 0) {
    802016c6:	00f57713          	andi	a4,a0,15
    802016ca:	4785                	li	a5,1
    802016cc:	02f70063          	beq	a4,a5,802016ec <kvmfreeusr+0x40>
      kfreewalk((pagetable_t) PTE2PA(pte));
      kpt[i] = 0;
    }
  }
}
    802016d0:	60e2                	ld	ra,24(sp)
    802016d2:	6442                	ld	s0,16(sp)
    802016d4:	64a2                	ld	s1,8(sp)
    802016d6:	6105                	addi	sp,sp,32
    802016d8:	8082                	ret
      kfreewalk((pagetable_t) PTE2PA(pte));
    802016da:	8129                	srli	a0,a0,0xa
    802016dc:	0532                	slli	a0,a0,0xc
    802016de:	00000097          	auipc	ra,0x0
    802016e2:	f72080e7          	jalr	-142(ra) # 80201650 <kfreewalk>
      kpt[i] = 0;
    802016e6:	0004b023          	sd	zero,0(s1)
    802016ea:	bfe9                	j	802016c4 <kvmfreeusr+0x18>
      kfreewalk((pagetable_t) PTE2PA(pte));
    802016ec:	8129                	srli	a0,a0,0xa
    802016ee:	0532                	slli	a0,a0,0xc
    802016f0:	00000097          	auipc	ra,0x0
    802016f4:	f60080e7          	jalr	-160(ra) # 80201650 <kfreewalk>
      kpt[i] = 0;
    802016f8:	0004b423          	sd	zero,8(s1)
}
    802016fc:	bfd1                	j	802016d0 <kvmfreeusr+0x24>

00000000802016fe <kvmfree>:

void
kvmfree(pagetable_t kpt, int stack_free)
{
    802016fe:	1101                	addi	sp,sp,-32
    80201700:	ec06                	sd	ra,24(sp)
    80201702:	e822                	sd	s0,16(sp)
    80201704:	e426                	sd	s1,8(sp)
    80201706:	1000                	addi	s0,sp,32
    80201708:	84aa                	mv	s1,a0
  if (stack_free) {
    8020170a:	e185                	bnez	a1,8020172a <kvmfree+0x2c>
    pte_t pte = kpt[PX(2, VKSTACK)];
    if ((pte & PTE_V) && (pte & (PTE_R|PTE_W|PTE_X)) == 0) {
      kfreewalk((pagetable_t) PTE2PA(pte));
    }
  }
  kvmfreeusr(kpt);
    8020170c:	8526                	mv	a0,s1
    8020170e:	00000097          	auipc	ra,0x0
    80201712:	f9e080e7          	jalr	-98(ra) # 802016ac <kvmfreeusr>
  kfree(kpt);
    80201716:	8526                	mv	a0,s1
    80201718:	fffff097          	auipc	ra,0xfffff
    8020171c:	d28080e7          	jalr	-728(ra) # 80200440 <kfree>
}
    80201720:	60e2                	ld	ra,24(sp)
    80201722:	6442                	ld	s0,16(sp)
    80201724:	64a2                	ld	s1,8(sp)
    80201726:	6105                	addi	sp,sp,32
    80201728:	8082                	ret
    vmunmap(kpt, VKSTACK, 1, 1);
    8020172a:	4685                	li	a3,1
    8020172c:	4605                	li	a2,1
    8020172e:	0fb00593          	li	a1,251
    80201732:	05fa                	slli	a1,a1,0x1e
    80201734:	fffff097          	auipc	ra,0xfffff
    80201738:	764080e7          	jalr	1892(ra) # 80200e98 <vmunmap>
    pte_t pte = kpt[PX(2, VKSTACK)];
    8020173c:	7d84b503          	ld	a0,2008(s1)
    if ((pte & PTE_V) && (pte & (PTE_R|PTE_W|PTE_X)) == 0) {
    80201740:	00f57713          	andi	a4,a0,15
    80201744:	4785                	li	a5,1
    80201746:	fcf713e3          	bne	a4,a5,8020170c <kvmfree+0xe>
      kfreewalk((pagetable_t) PTE2PA(pte));
    8020174a:	8129                	srli	a0,a0,0xa
    8020174c:	0532                	slli	a0,a0,0xc
    8020174e:	00000097          	auipc	ra,0x0
    80201752:	f02080e7          	jalr	-254(ra) # 80201650 <kfreewalk>
    80201756:	bf5d                	j	8020170c <kvmfree+0xe>

0000000080201758 <proc_kpagetable>:
{
    80201758:	1101                	addi	sp,sp,-32
    8020175a:	ec06                	sd	ra,24(sp)
    8020175c:	e822                	sd	s0,16(sp)
    8020175e:	e426                	sd	s1,8(sp)
    80201760:	1000                	addi	s0,sp,32
  pagetable_t kpt = (pagetable_t) kalloc();
    80201762:	fffff097          	auipc	ra,0xfffff
    80201766:	e26080e7          	jalr	-474(ra) # 80200588 <kalloc>
    8020176a:	84aa                	mv	s1,a0
  if (kpt == NULL)
    8020176c:	c91d                	beqz	a0,802017a2 <proc_kpagetable+0x4a>
  memmove(kpt, kernel_pagetable, PGSIZE);
    8020176e:	6605                	lui	a2,0x1
    80201770:	0003b597          	auipc	a1,0x3b
    80201774:	8e85b583          	ld	a1,-1816(a1) # 8023c058 <kernel_pagetable>
    80201778:	fffff097          	auipc	ra,0xfffff
    8020177c:	074080e7          	jalr	116(ra) # 802007ec <memmove>
  char *pstack = kalloc();
    80201780:	fffff097          	auipc	ra,0xfffff
    80201784:	e08080e7          	jalr	-504(ra) # 80200588 <kalloc>
    80201788:	86aa                	mv	a3,a0
  if(pstack == NULL)
    8020178a:	c115                	beqz	a0,802017ae <proc_kpagetable+0x56>
  if (mappages(kpt, VKSTACK, PGSIZE, (uint64)pstack, PTE_R | PTE_W) != 0)
    8020178c:	4719                	li	a4,6
    8020178e:	6605                	lui	a2,0x1
    80201790:	0fb00593          	li	a1,251
    80201794:	05fa                	slli	a1,a1,0x1e
    80201796:	8526                	mv	a0,s1
    80201798:	fffff097          	auipc	ra,0xfffff
    8020179c:	536080e7          	jalr	1334(ra) # 80200cce <mappages>
    802017a0:	e519                	bnez	a0,802017ae <proc_kpagetable+0x56>
}
    802017a2:	8526                	mv	a0,s1
    802017a4:	60e2                	ld	ra,24(sp)
    802017a6:	6442                	ld	s0,16(sp)
    802017a8:	64a2                	ld	s1,8(sp)
    802017aa:	6105                	addi	sp,sp,32
    802017ac:	8082                	ret
  kvmfree(kpt, 1);
    802017ae:	4585                	li	a1,1
    802017b0:	8526                	mv	a0,s1
    802017b2:	00000097          	auipc	ra,0x0
    802017b6:	f4c080e7          	jalr	-180(ra) # 802016fe <kvmfree>
  return NULL;
    802017ba:	4481                	li	s1,0
    802017bc:	b7dd                	j	802017a2 <proc_kpagetable+0x4a>

00000000802017be <vmprint>:

void vmprint(pagetable_t pagetable)
{
    802017be:	7119                	addi	sp,sp,-128
    802017c0:	fc86                	sd	ra,120(sp)
    802017c2:	f8a2                	sd	s0,112(sp)
    802017c4:	f4a6                	sd	s1,104(sp)
    802017c6:	f0ca                	sd	s2,96(sp)
    802017c8:	ecce                	sd	s3,88(sp)
    802017ca:	e8d2                	sd	s4,80(sp)
    802017cc:	e4d6                	sd	s5,72(sp)
    802017ce:	e0da                	sd	s6,64(sp)
    802017d0:	fc5e                	sd	s7,56(sp)
    802017d2:	f862                	sd	s8,48(sp)
    802017d4:	f466                	sd	s9,40(sp)
    802017d6:	f06a                	sd	s10,32(sp)
    802017d8:	ec6e                	sd	s11,24(sp)
    802017da:	0100                	addi	s0,sp,128
    802017dc:	8baa                	mv	s7,a0
    802017de:	f8a43423          	sd	a0,-120(s0)
  const int capacity = 512;
  printf("page table %p\n", pagetable);
    802017e2:	85aa                	mv	a1,a0
    802017e4:	00008517          	auipc	a0,0x8
    802017e8:	d8450513          	addi	a0,a0,-636 # 80209568 <digits+0x1e8>
    802017ec:	fffff097          	auipc	ra,0xfffff
    802017f0:	9a2080e7          	jalr	-1630(ra) # 8020018e <printf>
  for (pte_t *pte = (pte_t *) pagetable; pte < pagetable + capacity; pte++) {
    802017f4:	6d85                	lui	s11,0x1
    802017f6:	9dde                	add	s11,s11,s7
    802017f8:	6c85                	lui	s9,0x1

      for (pte_t *pte2 = (pte_t *) pt2; pte2 < pt2 + capacity; pte2++) {
        if (*pte2 & PTE_V)
        {
          pagetable_t pt3 = (pagetable_t) PTE2PA(*pte2);
          printf(".. ..%d: pte %p pa %p\n", pte2 - pt2, *pte2, pt3);
    802017fa:	00008d17          	auipc	s10,0x8
    802017fe:	d96d0d13          	addi	s10,s10,-618 # 80209590 <digits+0x210>

          for (pte_t *pte3 = (pte_t *) pt3; pte3 < pt3 + capacity; pte3++)
            if (*pte3 & PTE_V)
              printf(".. .. ..%d: pte %p pa %p\n", pte3 - pt3, *pte3, PTE2PA(*pte3));
    80201802:	00008a17          	auipc	s4,0x8
    80201806:	da6a0a13          	addi	s4,s4,-602 # 802095a8 <digits+0x228>
    8020180a:	a885                	j	8020187a <vmprint+0xbc>
          for (pte_t *pte3 = (pte_t *) pt3; pte3 < pt3 + capacity; pte3++)
    8020180c:	04a1                	addi	s1,s1,8
    8020180e:	197d                	addi	s2,s2,-1 # fff <_entry-0x801ff001>
    80201810:	02090263          	beqz	s2,80201834 <vmprint+0x76>
            if (*pte3 & PTE_V)
    80201814:	6090                	ld	a2,0(s1)
    80201816:	00167793          	andi	a5,a2,1
    8020181a:	dbed                	beqz	a5,8020180c <vmprint+0x4e>
              printf(".. .. ..%d: pte %p pa %p\n", pte3 - pt3, *pte3, PTE2PA(*pte3));
    8020181c:	00a65693          	srli	a3,a2,0xa
    80201820:	413485b3          	sub	a1,s1,s3
    80201824:	06b2                	slli	a3,a3,0xc
    80201826:	858d                	srai	a1,a1,0x3
    80201828:	8552                	mv	a0,s4
    8020182a:	fffff097          	auipc	ra,0xfffff
    8020182e:	964080e7          	jalr	-1692(ra) # 8020018e <printf>
    80201832:	bfe9                	j	8020180c <vmprint+0x4e>
      for (pte_t *pte2 = (pte_t *) pt2; pte2 < pt2 + capacity; pte2++) {
    80201834:	0aa1                	addi	s5,s5,8 # fffffffffffff008 <ebss_clear+0xffffffff7fda7008>
    80201836:	1b7d                	addi	s6,s6,-1 # fff <_entry-0x801ff001>
    80201838:	020b0e63          	beqz	s6,80201874 <vmprint+0xb6>
        if (*pte2 & PTE_V)
    8020183c:	000ab603          	ld	a2,0(s5)
    80201840:	00167793          	andi	a5,a2,1
    80201844:	dbe5                	beqz	a5,80201834 <vmprint+0x76>
          pagetable_t pt3 = (pagetable_t) PTE2PA(*pte2);
    80201846:	00a65993          	srli	s3,a2,0xa
    8020184a:	09b2                	slli	s3,s3,0xc
          printf(".. ..%d: pte %p pa %p\n", pte2 - pt2, *pte2, pt3);
    8020184c:	418a85b3          	sub	a1,s5,s8
    80201850:	86ce                	mv	a3,s3
    80201852:	858d                	srai	a1,a1,0x3
    80201854:	856a                	mv	a0,s10
    80201856:	fffff097          	auipc	ra,0xfffff
    8020185a:	938080e7          	jalr	-1736(ra) # 8020018e <printf>
          for (pte_t *pte3 = (pte_t *) pt3; pte3 < pt3 + capacity; pte3++)
    8020185e:	00898713          	addi	a4,s3,8 # 1008 <_entry-0x801feff8>
    80201862:	019987b3          	add	a5,s3,s9
    80201866:	20000913          	li	s2,512
    8020186a:	00e7f363          	bgeu	a5,a4,80201870 <vmprint+0xb2>
    8020186e:	4905                	li	s2,1
    80201870:	84ce                	mv	s1,s3
    80201872:	b74d                	j	80201814 <vmprint+0x56>
  for (pte_t *pte = (pte_t *) pagetable; pte < pagetable + capacity; pte++) {
    80201874:	0ba1                	addi	s7,s7,8 # fffffffffffff008 <ebss_clear+0xffffffff7fda7008>
    80201876:	05bb8463          	beq	s7,s11,802018be <vmprint+0x100>
    if (*pte & PTE_V)
    8020187a:	000bb603          	ld	a2,0(s7)
    8020187e:	00167793          	andi	a5,a2,1
    80201882:	dbed                	beqz	a5,80201874 <vmprint+0xb6>
      pagetable_t pt2 = (pagetable_t) PTE2PA(*pte); 
    80201884:	00a65c13          	srli	s8,a2,0xa
    80201888:	0c32                	slli	s8,s8,0xc
      printf("..%d: pte %p pa %p\n", pte - pagetable, *pte, pt2);
    8020188a:	f8843783          	ld	a5,-120(s0)
    8020188e:	40fb87b3          	sub	a5,s7,a5
    80201892:	86e2                	mv	a3,s8
    80201894:	4037d593          	srai	a1,a5,0x3
    80201898:	00008517          	auipc	a0,0x8
    8020189c:	ce050513          	addi	a0,a0,-800 # 80209578 <digits+0x1f8>
    802018a0:	fffff097          	auipc	ra,0xfffff
    802018a4:	8ee080e7          	jalr	-1810(ra) # 8020018e <printf>
      for (pte_t *pte2 = (pte_t *) pt2; pte2 < pt2 + capacity; pte2++) {
    802018a8:	019c0733          	add	a4,s8,s9
    802018ac:	008c0793          	addi	a5,s8,8 # 1008 <_entry-0x801feff8>
    802018b0:	20000b13          	li	s6,512
    802018b4:	00f77363          	bgeu	a4,a5,802018ba <vmprint+0xfc>
    802018b8:	4b05                	li	s6,1
    802018ba:	8ae2                	mv	s5,s8
    802018bc:	b741                	j	8020183c <vmprint+0x7e>
        }
      }
    }
  }
  return;
    802018be:	70e6                	ld	ra,120(sp)
    802018c0:	7446                	ld	s0,112(sp)
    802018c2:	74a6                	ld	s1,104(sp)
    802018c4:	7906                	ld	s2,96(sp)
    802018c6:	69e6                	ld	s3,88(sp)
    802018c8:	6a46                	ld	s4,80(sp)
    802018ca:	6aa6                	ld	s5,72(sp)
    802018cc:	6b06                	ld	s6,64(sp)
    802018ce:	7be2                	ld	s7,56(sp)
    802018d0:	7c42                	ld	s8,48(sp)
    802018d2:	7ca2                	ld	s9,40(sp)
    802018d4:	7d02                	ld	s10,32(sp)
    802018d6:	6de2                	ld	s11,24(sp)
    802018d8:	6109                	addi	sp,sp,128
    802018da:	8082                	ret

00000000802018dc <wakeup1>:

// Wake up p if it is sleeping in wait(); used by exit().
// Caller must hold p->lock.
static void
wakeup1(struct proc *p)
{
    802018dc:	1101                	addi	sp,sp,-32
    802018de:	ec06                	sd	ra,24(sp)
    802018e0:	e822                	sd	s0,16(sp)
    802018e2:	e426                	sd	s1,8(sp)
    802018e4:	1000                	addi	s0,sp,32
    802018e6:	84aa                	mv	s1,a0
  if(!holding(&p->lock))
    802018e8:	fffff097          	auipc	ra,0xfffff
    802018ec:	dde080e7          	jalr	-546(ra) # 802006c6 <holding>
    802018f0:	c909                	beqz	a0,80201902 <wakeup1+0x26>
    panic("wakeup1");
  if(p->chan == p && p->state == SLEEPING) {
    802018f2:	749c                	ld	a5,40(s1)
    802018f4:	00978f63          	beq	a5,s1,80201912 <wakeup1+0x36>
    p->state = RUNNABLE;
  }
}
    802018f8:	60e2                	ld	ra,24(sp)
    802018fa:	6442                	ld	s0,16(sp)
    802018fc:	64a2                	ld	s1,8(sp)
    802018fe:	6105                	addi	sp,sp,32
    80201900:	8082                	ret
    panic("wakeup1");
    80201902:	00008517          	auipc	a0,0x8
    80201906:	cc650513          	addi	a0,a0,-826 # 802095c8 <digits+0x248>
    8020190a:	fffff097          	auipc	ra,0xfffff
    8020190e:	83a080e7          	jalr	-1990(ra) # 80200144 <panic>
  if(p->chan == p && p->state == SLEEPING) {
    80201912:	4c98                	lw	a4,24(s1)
    80201914:	4785                	li	a5,1
    80201916:	fef711e3          	bne	a4,a5,802018f8 <wakeup1+0x1c>
    p->state = RUNNABLE;
    8020191a:	4789                	li	a5,2
    8020191c:	cc9c                	sw	a5,24(s1)
}
    8020191e:	bfe9                	j	802018f8 <wakeup1+0x1c>

0000000080201920 <reg_info>:
void reg_info(void) {
    80201920:	1141                	addi	sp,sp,-16
    80201922:	e406                	sd	ra,8(sp)
    80201924:	e022                	sd	s0,0(sp)
    80201926:	0800                	addi	s0,sp,16
  printf("register info: {\n");
    80201928:	00008517          	auipc	a0,0x8
    8020192c:	ca850513          	addi	a0,a0,-856 # 802095d0 <digits+0x250>
    80201930:	fffff097          	auipc	ra,0xfffff
    80201934:	85e080e7          	jalr	-1954(ra) # 8020018e <printf>
  asm volatile("csrr %0, sstatus" : "=r" (x) );
    80201938:	100025f3          	csrr	a1,sstatus
  printf("sstatus: %p\n", r_sstatus());
    8020193c:	00008517          	auipc	a0,0x8
    80201940:	cac50513          	addi	a0,a0,-852 # 802095e8 <digits+0x268>
    80201944:	fffff097          	auipc	ra,0xfffff
    80201948:	84a080e7          	jalr	-1974(ra) # 8020018e <printf>
  asm volatile("csrr %0, sip" : "=r" (x) );
    8020194c:	144025f3          	csrr	a1,sip
  printf("sip: %p\n", r_sip());
    80201950:	00008517          	auipc	a0,0x8
    80201954:	ca850513          	addi	a0,a0,-856 # 802095f8 <digits+0x278>
    80201958:	fffff097          	auipc	ra,0xfffff
    8020195c:	836080e7          	jalr	-1994(ra) # 8020018e <printf>
  asm volatile("csrr %0, sie" : "=r" (x) );
    80201960:	104025f3          	csrr	a1,sie
  printf("sie: %p\n", r_sie());
    80201964:	00008517          	auipc	a0,0x8
    80201968:	ca450513          	addi	a0,a0,-860 # 80209608 <digits+0x288>
    8020196c:	fffff097          	auipc	ra,0xfffff
    80201970:	822080e7          	jalr	-2014(ra) # 8020018e <printf>
  asm volatile("csrr %0, sepc" : "=r" (x) );
    80201974:	141025f3          	csrr	a1,sepc
  printf("sepc: %p\n", r_sepc());
    80201978:	00008517          	auipc	a0,0x8
    8020197c:	ca050513          	addi	a0,a0,-864 # 80209618 <digits+0x298>
    80201980:	fffff097          	auipc	ra,0xfffff
    80201984:	80e080e7          	jalr	-2034(ra) # 8020018e <printf>
  asm volatile("csrr %0, stvec" : "=r" (x) );
    80201988:	105025f3          	csrr	a1,stvec
  printf("stvec: %p\n", r_stvec());
    8020198c:	00008517          	auipc	a0,0x8
    80201990:	c9c50513          	addi	a0,a0,-868 # 80209628 <digits+0x2a8>
    80201994:	ffffe097          	auipc	ra,0xffffe
    80201998:	7fa080e7          	jalr	2042(ra) # 8020018e <printf>
  asm volatile("csrr %0, satp" : "=r" (x) );
    8020199c:	180025f3          	csrr	a1,satp
  printf("satp: %p\n", r_satp());
    802019a0:	00008517          	auipc	a0,0x8
    802019a4:	c9850513          	addi	a0,a0,-872 # 80209638 <digits+0x2b8>
    802019a8:	ffffe097          	auipc	ra,0xffffe
    802019ac:	7e6080e7          	jalr	2022(ra) # 8020018e <printf>
  asm volatile("csrr %0, scause" : "=r" (x) );
    802019b0:	142025f3          	csrr	a1,scause
  printf("scause: %p\n", r_scause());
    802019b4:	00008517          	auipc	a0,0x8
    802019b8:	c9450513          	addi	a0,a0,-876 # 80209648 <digits+0x2c8>
    802019bc:	ffffe097          	auipc	ra,0xffffe
    802019c0:	7d2080e7          	jalr	2002(ra) # 8020018e <printf>
  asm volatile("csrr %0, stval" : "=r" (x) );
    802019c4:	143025f3          	csrr	a1,stval
  printf("stval: %p\n", r_stval());
    802019c8:	00008517          	auipc	a0,0x8
    802019cc:	c9050513          	addi	a0,a0,-880 # 80209658 <digits+0x2d8>
    802019d0:	ffffe097          	auipc	ra,0xffffe
    802019d4:	7be080e7          	jalr	1982(ra) # 8020018e <printf>
  asm volatile("mv %0, sp" : "=r" (x) );
    802019d8:	858a                	mv	a1,sp
  printf("sp: %p\n", r_sp());
    802019da:	00008517          	auipc	a0,0x8
    802019de:	c8e50513          	addi	a0,a0,-882 # 80209668 <digits+0x2e8>
    802019e2:	ffffe097          	auipc	ra,0xffffe
    802019e6:	7ac080e7          	jalr	1964(ra) # 8020018e <printf>
  asm volatile("mv %0, tp" : "=r" (x) );
    802019ea:	8592                	mv	a1,tp
  printf("tp: %p\n", r_tp());
    802019ec:	00008517          	auipc	a0,0x8
    802019f0:	c8450513          	addi	a0,a0,-892 # 80209670 <digits+0x2f0>
    802019f4:	ffffe097          	auipc	ra,0xffffe
    802019f8:	79a080e7          	jalr	1946(ra) # 8020018e <printf>
  asm volatile("mv %0, ra" : "=r" (x) );
    802019fc:	8586                	mv	a1,ra
  printf("ra: %p\n", r_ra());
    802019fe:	00008517          	auipc	a0,0x8
    80201a02:	c7a50513          	addi	a0,a0,-902 # 80209678 <digits+0x2f8>
    80201a06:	ffffe097          	auipc	ra,0xffffe
    80201a0a:	788080e7          	jalr	1928(ra) # 8020018e <printf>
  printf("}\n");
    80201a0e:	00008517          	auipc	a0,0x8
    80201a12:	c7250513          	addi	a0,a0,-910 # 80209680 <digits+0x300>
    80201a16:	ffffe097          	auipc	ra,0xffffe
    80201a1a:	778080e7          	jalr	1912(ra) # 8020018e <printf>
}
    80201a1e:	60a2                	ld	ra,8(sp)
    80201a20:	6402                	ld	s0,0(sp)
    80201a22:	0141                	addi	sp,sp,16
    80201a24:	8082                	ret

0000000080201a26 <procinit>:
{
    80201a26:	7179                	addi	sp,sp,-48
    80201a28:	f406                	sd	ra,40(sp)
    80201a2a:	f022                	sd	s0,32(sp)
    80201a2c:	ec26                	sd	s1,24(sp)
    80201a2e:	e84a                	sd	s2,16(sp)
    80201a30:	e44e                	sd	s3,8(sp)
    80201a32:	1800                	addi	s0,sp,48
  initlock(&pid_lock, "nextpid");
    80201a34:	00008597          	auipc	a1,0x8
    80201a38:	c5458593          	addi	a1,a1,-940 # 80209688 <digits+0x308>
    80201a3c:	0003a517          	auipc	a0,0x3a
    80201a40:	62450513          	addi	a0,a0,1572 # 8023c060 <pid_lock>
    80201a44:	fffff097          	auipc	ra,0xfffff
    80201a48:	c6c080e7          	jalr	-916(ra) # 802006b0 <initlock>
  for(p = proc; p < &proc[NPROC]; p++) {
    80201a4c:	0003a497          	auipc	s1,0x3a
    80201a50:	73448493          	addi	s1,s1,1844 # 8023c180 <proc>
      initlock(&p->lock, "proc");
    80201a54:	00008997          	auipc	s3,0x8
    80201a58:	c3c98993          	addi	s3,s3,-964 # 80209690 <digits+0x310>
  for(p = proc; p < &proc[NPROC]; p++) {
    80201a5c:	00048917          	auipc	s2,0x48
    80201a60:	37490913          	addi	s2,s2,884 # 80249dd0 <bcache>
      initlock(&p->lock, "proc");
    80201a64:	85ce                	mv	a1,s3
    80201a66:	8526                	mv	a0,s1
    80201a68:	fffff097          	auipc	ra,0xfffff
    80201a6c:	c48080e7          	jalr	-952(ra) # 802006b0 <initlock>
  for(p = proc; p < &proc[NPROC]; p++) {
    80201a70:	46848493          	addi	s1,s1,1128
    80201a74:	ff2498e3          	bne	s1,s2,80201a64 <procinit+0x3e>
  memset(cpus, 0, sizeof(cpus));
    80201a78:	10000613          	li	a2,256
    80201a7c:	4581                	li	a1,0
    80201a7e:	0003a517          	auipc	a0,0x3a
    80201a82:	5fa50513          	addi	a0,a0,1530 # 8023c078 <cpus>
    80201a86:	fffff097          	auipc	ra,0xfffff
    80201a8a:	d0a080e7          	jalr	-758(ra) # 80200790 <memset>
  printf("procinit\n");
    80201a8e:	00008517          	auipc	a0,0x8
    80201a92:	c0a50513          	addi	a0,a0,-1014 # 80209698 <digits+0x318>
    80201a96:	ffffe097          	auipc	ra,0xffffe
    80201a9a:	6f8080e7          	jalr	1784(ra) # 8020018e <printf>
}
    80201a9e:	70a2                	ld	ra,40(sp)
    80201aa0:	7402                	ld	s0,32(sp)
    80201aa2:	64e2                	ld	s1,24(sp)
    80201aa4:	6942                	ld	s2,16(sp)
    80201aa6:	69a2                	ld	s3,8(sp)
    80201aa8:	6145                	addi	sp,sp,48
    80201aaa:	8082                	ret

0000000080201aac <cpuid>:
{
    80201aac:	1141                	addi	sp,sp,-16
    80201aae:	e422                	sd	s0,8(sp)
    80201ab0:	0800                	addi	s0,sp,16
  asm volatile("mv %0, tp" : "=r" (x) );
    80201ab2:	8512                	mv	a0,tp
}
    80201ab4:	2501                	sext.w	a0,a0
    80201ab6:	6422                	ld	s0,8(sp)
    80201ab8:	0141                	addi	sp,sp,16
    80201aba:	8082                	ret

0000000080201abc <mycpu>:
mycpu(void) {
    80201abc:	1141                	addi	sp,sp,-16
    80201abe:	e422                	sd	s0,8(sp)
    80201ac0:	0800                	addi	s0,sp,16
    80201ac2:	8792                	mv	a5,tp
  struct cpu *c = &cpus[id];
    80201ac4:	2781                	sext.w	a5,a5
    80201ac6:	079e                	slli	a5,a5,0x7
}
    80201ac8:	0003a517          	auipc	a0,0x3a
    80201acc:	5b050513          	addi	a0,a0,1456 # 8023c078 <cpus>
    80201ad0:	953e                	add	a0,a0,a5
    80201ad2:	6422                	ld	s0,8(sp)
    80201ad4:	0141                	addi	sp,sp,16
    80201ad6:	8082                	ret

0000000080201ad8 <myproc>:
myproc(void) {
    80201ad8:	1101                	addi	sp,sp,-32
    80201ada:	ec06                	sd	ra,24(sp)
    80201adc:	e822                	sd	s0,16(sp)
    80201ade:	e426                	sd	s1,8(sp)
    80201ae0:	1000                	addi	s0,sp,32
  push_off();
    80201ae2:	fffff097          	auipc	ra,0xfffff
    80201ae6:	b22080e7          	jalr	-1246(ra) # 80200604 <push_off>
    80201aea:	8792                	mv	a5,tp
  struct proc *p = c->proc;
    80201aec:	2781                	sext.w	a5,a5
    80201aee:	079e                	slli	a5,a5,0x7
    80201af0:	0003a717          	auipc	a4,0x3a
    80201af4:	57070713          	addi	a4,a4,1392 # 8023c060 <pid_lock>
    80201af8:	97ba                	add	a5,a5,a4
    80201afa:	6f84                	ld	s1,24(a5)
  pop_off();
    80201afc:	fffff097          	auipc	ra,0xfffff
    80201b00:	b54080e7          	jalr	-1196(ra) # 80200650 <pop_off>
}
    80201b04:	8526                	mv	a0,s1
    80201b06:	60e2                	ld	ra,24(sp)
    80201b08:	6442                	ld	s0,16(sp)
    80201b0a:	64a2                	ld	s1,8(sp)
    80201b0c:	6105                	addi	sp,sp,32
    80201b0e:	8082                	ret

0000000080201b10 <forkret>:
{
    80201b10:	1101                	addi	sp,sp,-32
    80201b12:	ec06                	sd	ra,24(sp)
    80201b14:	e822                	sd	s0,16(sp)
    80201b16:	e426                	sd	s1,8(sp)
    80201b18:	1000                	addi	s0,sp,32
  release(&myproc()->lock);
    80201b1a:	00000097          	auipc	ra,0x0
    80201b1e:	fbe080e7          	jalr	-66(ra) # 80201ad8 <myproc>
    80201b22:	fffff097          	auipc	ra,0xfffff
    80201b26:	c26080e7          	jalr	-986(ra) # 80200748 <release>
  if (first) {
    80201b2a:	00009797          	auipc	a5,0x9
    80201b2e:	4d67a783          	lw	a5,1238(a5) # 8020b000 <first.1>
    80201b32:	eb91                	bnez	a5,80201b46 <forkret+0x36>
  usertrapret();
    80201b34:	00001097          	auipc	ra,0x1
    80201b38:	de2080e7          	jalr	-542(ra) # 80202916 <usertrapret>
}
    80201b3c:	60e2                	ld	ra,24(sp)
    80201b3e:	6442                	ld	s0,16(sp)
    80201b40:	64a2                	ld	s1,8(sp)
    80201b42:	6105                	addi	sp,sp,32
    80201b44:	8082                	ret
    first = 0;
    80201b46:	00009797          	auipc	a5,0x9
    80201b4a:	4a07ad23          	sw	zero,1210(a5) # 8020b000 <first.1>
    fat32_init();
    80201b4e:	00004097          	auipc	ra,0x4
    80201b52:	5c4080e7          	jalr	1476(ra) # 80206112 <fat32_init>
    myproc()->cwd = ename("/");
    80201b56:	00000097          	auipc	ra,0x0
    80201b5a:	f82080e7          	jalr	-126(ra) # 80201ad8 <myproc>
    80201b5e:	84aa                	mv	s1,a0
    80201b60:	00008517          	auipc	a0,0x8
    80201b64:	b4850513          	addi	a0,a0,-1208 # 802096a8 <digits+0x328>
    80201b68:	00006097          	auipc	ra,0x6
    80201b6c:	89e080e7          	jalr	-1890(ra) # 80207406 <ename>
    80201b70:	44a4b423          	sd	a0,1096(s1)
    80201b74:	b7c1                	j	80201b34 <forkret+0x24>

0000000080201b76 <allocpid>:
allocpid() {
    80201b76:	1101                	addi	sp,sp,-32
    80201b78:	ec06                	sd	ra,24(sp)
    80201b7a:	e822                	sd	s0,16(sp)
    80201b7c:	e426                	sd	s1,8(sp)
    80201b7e:	e04a                	sd	s2,0(sp)
    80201b80:	1000                	addi	s0,sp,32
  acquire(&pid_lock);
    80201b82:	0003a917          	auipc	s2,0x3a
    80201b86:	4de90913          	addi	s2,s2,1246 # 8023c060 <pid_lock>
    80201b8a:	854a                	mv	a0,s2
    80201b8c:	fffff097          	auipc	ra,0xfffff
    80201b90:	b68080e7          	jalr	-1176(ra) # 802006f4 <acquire>
  pid = nextpid;
    80201b94:	00009797          	auipc	a5,0x9
    80201b98:	46c78793          	addi	a5,a5,1132 # 8020b000 <first.1>
    80201b9c:	43c4                	lw	s1,4(a5)
  nextpid = nextpid + 1;
    80201b9e:	0014871b          	addiw	a4,s1,1
    80201ba2:	c3d8                	sw	a4,4(a5)
  release(&pid_lock);
    80201ba4:	854a                	mv	a0,s2
    80201ba6:	fffff097          	auipc	ra,0xfffff
    80201baa:	ba2080e7          	jalr	-1118(ra) # 80200748 <release>
}
    80201bae:	8526                	mv	a0,s1
    80201bb0:	60e2                	ld	ra,24(sp)
    80201bb2:	6442                	ld	s0,16(sp)
    80201bb4:	64a2                	ld	s1,8(sp)
    80201bb6:	6902                	ld	s2,0(sp)
    80201bb8:	6105                	addi	sp,sp,32
    80201bba:	8082                	ret

0000000080201bbc <proc_pagetable>:
{
    80201bbc:	1101                	addi	sp,sp,-32
    80201bbe:	ec06                	sd	ra,24(sp)
    80201bc0:	e822                	sd	s0,16(sp)
    80201bc2:	e426                	sd	s1,8(sp)
    80201bc4:	e04a                	sd	s2,0(sp)
    80201bc6:	1000                	addi	s0,sp,32
    80201bc8:	892a                	mv	s2,a0
  pagetable = uvmcreate();
    80201bca:	fffff097          	auipc	ra,0xfffff
    80201bce:	392080e7          	jalr	914(ra) # 80200f5c <uvmcreate>
    80201bd2:	84aa                	mv	s1,a0
  if(pagetable == 0)
    80201bd4:	c121                	beqz	a0,80201c14 <proc_pagetable+0x58>
  if(mappages(pagetable, TRAMPOLINE, PGSIZE,
    80201bd6:	4729                	li	a4,10
    80201bd8:	00031697          	auipc	a3,0x31
    80201bdc:	7086b683          	ld	a3,1800(a3) # 802332e0 <_GLOBAL_OFFSET_TABLE_+0x8>
    80201be0:	6605                	lui	a2,0x1
    80201be2:	040005b7          	lui	a1,0x4000
    80201be6:	15fd                	addi	a1,a1,-1 # 3ffffff <_entry-0x7c200001>
    80201be8:	05b2                	slli	a1,a1,0xc
    80201bea:	fffff097          	auipc	ra,0xfffff
    80201bee:	0e4080e7          	jalr	228(ra) # 80200cce <mappages>
    80201bf2:	02054863          	bltz	a0,80201c22 <proc_pagetable+0x66>
  if(mappages(pagetable, TRAPFRAME, PGSIZE,
    80201bf6:	4719                	li	a4,6
    80201bf8:	06093683          	ld	a3,96(s2)
    80201bfc:	6605                	lui	a2,0x1
    80201bfe:	020005b7          	lui	a1,0x2000
    80201c02:	15fd                	addi	a1,a1,-1 # 1ffffff <_entry-0x7e200001>
    80201c04:	05b6                	slli	a1,a1,0xd
    80201c06:	8526                	mv	a0,s1
    80201c08:	fffff097          	auipc	ra,0xfffff
    80201c0c:	0c6080e7          	jalr	198(ra) # 80200cce <mappages>
    80201c10:	02054163          	bltz	a0,80201c32 <proc_pagetable+0x76>
}
    80201c14:	8526                	mv	a0,s1
    80201c16:	60e2                	ld	ra,24(sp)
    80201c18:	6442                	ld	s0,16(sp)
    80201c1a:	64a2                	ld	s1,8(sp)
    80201c1c:	6902                	ld	s2,0(sp)
    80201c1e:	6105                	addi	sp,sp,32
    80201c20:	8082                	ret
    uvmfree(pagetable, 0);
    80201c22:	4581                	li	a1,0
    80201c24:	8526                	mv	a0,s1
    80201c26:	fffff097          	auipc	ra,0xfffff
    80201c2a:	5d2080e7          	jalr	1490(ra) # 802011f8 <uvmfree>
    return NULL;
    80201c2e:	4481                	li	s1,0
    80201c30:	b7d5                	j	80201c14 <proc_pagetable+0x58>
    vmunmap(pagetable, TRAMPOLINE, 1, 0);
    80201c32:	4681                	li	a3,0
    80201c34:	4605                	li	a2,1
    80201c36:	040005b7          	lui	a1,0x4000
    80201c3a:	15fd                	addi	a1,a1,-1 # 3ffffff <_entry-0x7c200001>
    80201c3c:	05b2                	slli	a1,a1,0xc
    80201c3e:	8526                	mv	a0,s1
    80201c40:	fffff097          	auipc	ra,0xfffff
    80201c44:	258080e7          	jalr	600(ra) # 80200e98 <vmunmap>
    uvmfree(pagetable, 0);
    80201c48:	4581                	li	a1,0
    80201c4a:	8526                	mv	a0,s1
    80201c4c:	fffff097          	auipc	ra,0xfffff
    80201c50:	5ac080e7          	jalr	1452(ra) # 802011f8 <uvmfree>
    return NULL;
    80201c54:	4481                	li	s1,0
    80201c56:	bf7d                	j	80201c14 <proc_pagetable+0x58>

0000000080201c58 <proc_freepagetable>:
{
    80201c58:	1101                	addi	sp,sp,-32
    80201c5a:	ec06                	sd	ra,24(sp)
    80201c5c:	e822                	sd	s0,16(sp)
    80201c5e:	e426                	sd	s1,8(sp)
    80201c60:	e04a                	sd	s2,0(sp)
    80201c62:	1000                	addi	s0,sp,32
    80201c64:	84aa                	mv	s1,a0
    80201c66:	892e                	mv	s2,a1
  vmunmap(pagetable, TRAMPOLINE, 1, 0);
    80201c68:	4681                	li	a3,0
    80201c6a:	4605                	li	a2,1
    80201c6c:	040005b7          	lui	a1,0x4000
    80201c70:	15fd                	addi	a1,a1,-1 # 3ffffff <_entry-0x7c200001>
    80201c72:	05b2                	slli	a1,a1,0xc
    80201c74:	fffff097          	auipc	ra,0xfffff
    80201c78:	224080e7          	jalr	548(ra) # 80200e98 <vmunmap>
  vmunmap(pagetable, TRAPFRAME, 1, 0);
    80201c7c:	4681                	li	a3,0
    80201c7e:	4605                	li	a2,1
    80201c80:	020005b7          	lui	a1,0x2000
    80201c84:	15fd                	addi	a1,a1,-1 # 1ffffff <_entry-0x7e200001>
    80201c86:	05b6                	slli	a1,a1,0xd
    80201c88:	8526                	mv	a0,s1
    80201c8a:	fffff097          	auipc	ra,0xfffff
    80201c8e:	20e080e7          	jalr	526(ra) # 80200e98 <vmunmap>
  uvmfree(pagetable, sz);
    80201c92:	85ca                	mv	a1,s2
    80201c94:	8526                	mv	a0,s1
    80201c96:	fffff097          	auipc	ra,0xfffff
    80201c9a:	562080e7          	jalr	1378(ra) # 802011f8 <uvmfree>
}
    80201c9e:	60e2                	ld	ra,24(sp)
    80201ca0:	6442                	ld	s0,16(sp)
    80201ca2:	64a2                	ld	s1,8(sp)
    80201ca4:	6902                	ld	s2,0(sp)
    80201ca6:	6105                	addi	sp,sp,32
    80201ca8:	8082                	ret

0000000080201caa <freeproc>:
{
    80201caa:	1101                	addi	sp,sp,-32
    80201cac:	ec06                	sd	ra,24(sp)
    80201cae:	e822                	sd	s0,16(sp)
    80201cb0:	e426                	sd	s1,8(sp)
    80201cb2:	1000                	addi	s0,sp,32
    80201cb4:	84aa                	mv	s1,a0
  if(p->trapframe)
    80201cb6:	7128                	ld	a0,96(a0)
    80201cb8:	c509                	beqz	a0,80201cc2 <freeproc+0x18>
    kfree((void*)p->trapframe);
    80201cba:	ffffe097          	auipc	ra,0xffffe
    80201cbe:	786080e7          	jalr	1926(ra) # 80200440 <kfree>
  p->trapframe = 0;
    80201cc2:	0604b023          	sd	zero,96(s1)
  if (p->kpagetable) {
    80201cc6:	6ca8                	ld	a0,88(s1)
    80201cc8:	c511                	beqz	a0,80201cd4 <freeproc+0x2a>
    kvmfree(p->kpagetable, 1);
    80201cca:	4585                	li	a1,1
    80201ccc:	00000097          	auipc	ra,0x0
    80201cd0:	a32080e7          	jalr	-1486(ra) # 802016fe <kvmfree>
  p->kpagetable = 0;
    80201cd4:	0404bc23          	sd	zero,88(s1)
  if(p->pagetable)
    80201cd8:	68a8                	ld	a0,80(s1)
    80201cda:	c511                	beqz	a0,80201ce6 <freeproc+0x3c>
    proc_freepagetable(p->pagetable, p->sz);
    80201cdc:	64ac                	ld	a1,72(s1)
    80201cde:	00000097          	auipc	ra,0x0
    80201ce2:	f7a080e7          	jalr	-134(ra) # 80201c58 <proc_freepagetable>
  p->pagetable = 0;
    80201ce6:	0404b823          	sd	zero,80(s1)
  p->sz = 0;
    80201cea:	0404b423          	sd	zero,72(s1)
  p->pid = 0;
    80201cee:	0204ac23          	sw	zero,56(s1)
  p->parent = 0;
    80201cf2:	0204b023          	sd	zero,32(s1)
  p->name[0] = 0;
    80201cf6:	44048823          	sb	zero,1104(s1)
  p->chan = 0;
    80201cfa:	0204b423          	sd	zero,40(s1)
  p->killed = 0;
    80201cfe:	0204a823          	sw	zero,48(s1)
  p->xstate = 0;
    80201d02:	0204aa23          	sw	zero,52(s1)
  p->state = UNUSED;
    80201d06:	0004ac23          	sw	zero,24(s1)
}
    80201d0a:	60e2                	ld	ra,24(sp)
    80201d0c:	6442                	ld	s0,16(sp)
    80201d0e:	64a2                	ld	s1,8(sp)
    80201d10:	6105                	addi	sp,sp,32
    80201d12:	8082                	ret

0000000080201d14 <allocproc>:
{
    80201d14:	1101                	addi	sp,sp,-32
    80201d16:	ec06                	sd	ra,24(sp)
    80201d18:	e822                	sd	s0,16(sp)
    80201d1a:	e426                	sd	s1,8(sp)
    80201d1c:	e04a                	sd	s2,0(sp)
    80201d1e:	1000                	addi	s0,sp,32
  for(p = proc; p < &proc[NPROC]; p++) {
    80201d20:	0003a497          	auipc	s1,0x3a
    80201d24:	46048493          	addi	s1,s1,1120 # 8023c180 <proc>
    80201d28:	00048917          	auipc	s2,0x48
    80201d2c:	0a890913          	addi	s2,s2,168 # 80249dd0 <bcache>
    acquire(&p->lock);
    80201d30:	8526                	mv	a0,s1
    80201d32:	fffff097          	auipc	ra,0xfffff
    80201d36:	9c2080e7          	jalr	-1598(ra) # 802006f4 <acquire>
    if(p->state == UNUSED) {
    80201d3a:	4c9c                	lw	a5,24(s1)
    80201d3c:	cf81                	beqz	a5,80201d54 <allocproc+0x40>
      release(&p->lock);
    80201d3e:	8526                	mv	a0,s1
    80201d40:	fffff097          	auipc	ra,0xfffff
    80201d44:	a08080e7          	jalr	-1528(ra) # 80200748 <release>
  for(p = proc; p < &proc[NPROC]; p++) {
    80201d48:	46848493          	addi	s1,s1,1128
    80201d4c:	ff2492e3          	bne	s1,s2,80201d30 <allocproc+0x1c>
  return NULL;
    80201d50:	4481                	li	s1,0
    80201d52:	a085                	j	80201db2 <allocproc+0x9e>
  p->pid = allocpid();
    80201d54:	00000097          	auipc	ra,0x0
    80201d58:	e22080e7          	jalr	-478(ra) # 80201b76 <allocpid>
    80201d5c:	dc88                	sw	a0,56(s1)
  if((p->trapframe = (struct trapframe *)kalloc()) == NULL){
    80201d5e:	fffff097          	auipc	ra,0xfffff
    80201d62:	82a080e7          	jalr	-2006(ra) # 80200588 <kalloc>
    80201d66:	892a                	mv	s2,a0
    80201d68:	f0a8                	sd	a0,96(s1)
    80201d6a:	c939                	beqz	a0,80201dc0 <allocproc+0xac>
  if ((p->pagetable = proc_pagetable(p)) == NULL ||
    80201d6c:	8526                	mv	a0,s1
    80201d6e:	00000097          	auipc	ra,0x0
    80201d72:	e4e080e7          	jalr	-434(ra) # 80201bbc <proc_pagetable>
    80201d76:	e8a8                	sd	a0,80(s1)
    80201d78:	c939                	beqz	a0,80201dce <allocproc+0xba>
      (p->kpagetable = proc_kpagetable()) == NULL) {
    80201d7a:	00000097          	auipc	ra,0x0
    80201d7e:	9de080e7          	jalr	-1570(ra) # 80201758 <proc_kpagetable>
    80201d82:	eca8                	sd	a0,88(s1)
  if ((p->pagetable = proc_pagetable(p)) == NULL ||
    80201d84:	c529                	beqz	a0,80201dce <allocproc+0xba>
  p->kstack = VKSTACK;
    80201d86:	0fb00793          	li	a5,251
    80201d8a:	07fa                	slli	a5,a5,0x1e
    80201d8c:	e0bc                	sd	a5,64(s1)
  memset(&p->context, 0, sizeof(p->context));
    80201d8e:	07000613          	li	a2,112
    80201d92:	4581                	li	a1,0
    80201d94:	06848513          	addi	a0,s1,104
    80201d98:	fffff097          	auipc	ra,0xfffff
    80201d9c:	9f8080e7          	jalr	-1544(ra) # 80200790 <memset>
  p->context.ra = (uint64)forkret;
    80201da0:	00000797          	auipc	a5,0x0
    80201da4:	d7078793          	addi	a5,a5,-656 # 80201b10 <forkret>
    80201da8:	f4bc                	sd	a5,104(s1)
  p->context.sp = p->kstack + PGSIZE;
    80201daa:	60bc                	ld	a5,64(s1)
    80201dac:	6705                	lui	a4,0x1
    80201dae:	97ba                	add	a5,a5,a4
    80201db0:	f8bc                	sd	a5,112(s1)
}
    80201db2:	8526                	mv	a0,s1
    80201db4:	60e2                	ld	ra,24(sp)
    80201db6:	6442                	ld	s0,16(sp)
    80201db8:	64a2                	ld	s1,8(sp)
    80201dba:	6902                	ld	s2,0(sp)
    80201dbc:	6105                	addi	sp,sp,32
    80201dbe:	8082                	ret
    release(&p->lock);
    80201dc0:	8526                	mv	a0,s1
    80201dc2:	fffff097          	auipc	ra,0xfffff
    80201dc6:	986080e7          	jalr	-1658(ra) # 80200748 <release>
    return NULL;
    80201dca:	84ca                	mv	s1,s2
    80201dcc:	b7dd                	j	80201db2 <allocproc+0x9e>
    freeproc(p);
    80201dce:	8526                	mv	a0,s1
    80201dd0:	00000097          	auipc	ra,0x0
    80201dd4:	eda080e7          	jalr	-294(ra) # 80201caa <freeproc>
    release(&p->lock);
    80201dd8:	8526                	mv	a0,s1
    80201dda:	fffff097          	auipc	ra,0xfffff
    80201dde:	96e080e7          	jalr	-1682(ra) # 80200748 <release>
    return NULL;
    80201de2:	4481                	li	s1,0
    80201de4:	b7f9                	j	80201db2 <allocproc+0x9e>

0000000080201de6 <userinit>:
{
    80201de6:	1101                	addi	sp,sp,-32
    80201de8:	ec06                	sd	ra,24(sp)
    80201dea:	e822                	sd	s0,16(sp)
    80201dec:	e426                	sd	s1,8(sp)
    80201dee:	e04a                	sd	s2,0(sp)
    80201df0:	1000                	addi	s0,sp,32
  p = allocproc();
    80201df2:	00000097          	auipc	ra,0x0
    80201df6:	f22080e7          	jalr	-222(ra) # 80201d14 <allocproc>
    80201dfa:	84aa                	mv	s1,a0
  initproc = p;
    80201dfc:	0003a797          	auipc	a5,0x3a
    80201e00:	36a7be23          	sd	a0,892(a5) # 8023c178 <initproc>
  uvminit(p->pagetable , p->kpagetable, initcode, sizeof(initcode));
    80201e04:	6905                	lui	s2,0x1
    80201e06:	c2090693          	addi	a3,s2,-992 # c20 <_entry-0x801ff3e0>
    80201e0a:	00009617          	auipc	a2,0x9
    80201e0e:	1fe60613          	addi	a2,a2,510 # 8020b008 <initcode>
    80201e12:	6d2c                	ld	a1,88(a0)
    80201e14:	6928                	ld	a0,80(a0)
    80201e16:	fffff097          	auipc	ra,0xfffff
    80201e1a:	174080e7          	jalr	372(ra) # 80200f8a <uvminit>
  p->sz = PGSIZE;
    80201e1e:	0524b423          	sd	s2,72(s1)
  p->trapframe->epc = 0x0;      // user program counter
    80201e22:	70bc                	ld	a5,96(s1)
    80201e24:	0007bc23          	sd	zero,24(a5)
  p->trapframe->sp = PGSIZE;  // user stack pointer
    80201e28:	70bc                	ld	a5,96(s1)
    80201e2a:	0327b823          	sd	s2,48(a5)
  safestrcpy(p->name, "initcode", sizeof(p->name));
    80201e2e:	4641                	li	a2,16
    80201e30:	00008597          	auipc	a1,0x8
    80201e34:	88058593          	addi	a1,a1,-1920 # 802096b0 <digits+0x330>
    80201e38:	45048513          	addi	a0,s1,1104
    80201e3c:	fffff097          	auipc	ra,0xfffff
    80201e40:	aa6080e7          	jalr	-1370(ra) # 802008e2 <safestrcpy>
  p->state = RUNNABLE;
    80201e44:	4789                	li	a5,2
    80201e46:	cc9c                	sw	a5,24(s1)
  p->tmask = 0;
    80201e48:	4604a023          	sw	zero,1120(s1)
  release(&p->lock);
    80201e4c:	8526                	mv	a0,s1
    80201e4e:	fffff097          	auipc	ra,0xfffff
    80201e52:	8fa080e7          	jalr	-1798(ra) # 80200748 <release>
  printf("userinit\n");
    80201e56:	00008517          	auipc	a0,0x8
    80201e5a:	86a50513          	addi	a0,a0,-1942 # 802096c0 <digits+0x340>
    80201e5e:	ffffe097          	auipc	ra,0xffffe
    80201e62:	330080e7          	jalr	816(ra) # 8020018e <printf>
}
    80201e66:	60e2                	ld	ra,24(sp)
    80201e68:	6442                	ld	s0,16(sp)
    80201e6a:	64a2                	ld	s1,8(sp)
    80201e6c:	6902                	ld	s2,0(sp)
    80201e6e:	6105                	addi	sp,sp,32
    80201e70:	8082                	ret

0000000080201e72 <growproc>:
{
    80201e72:	1101                	addi	sp,sp,-32
    80201e74:	ec06                	sd	ra,24(sp)
    80201e76:	e822                	sd	s0,16(sp)
    80201e78:	e426                	sd	s1,8(sp)
    80201e7a:	e04a                	sd	s2,0(sp)
    80201e7c:	1000                	addi	s0,sp,32
    80201e7e:	84aa                	mv	s1,a0
  struct proc *p = myproc();
    80201e80:	00000097          	auipc	ra,0x0
    80201e84:	c58080e7          	jalr	-936(ra) # 80201ad8 <myproc>
    80201e88:	892a                	mv	s2,a0
  sz = p->sz;
    80201e8a:	6530                	ld	a2,72(a0)
    80201e8c:	0006079b          	sext.w	a5,a2
  if(n > 0){
    80201e90:	00904f63          	bgtz	s1,80201eae <growproc+0x3c>
  } else if(n < 0){
    80201e94:	0204ce63          	bltz	s1,80201ed0 <growproc+0x5e>
  p->sz = sz;
    80201e98:	1782                	slli	a5,a5,0x20
    80201e9a:	9381                	srli	a5,a5,0x20
    80201e9c:	04f93423          	sd	a5,72(s2)
  return 0;
    80201ea0:	4501                	li	a0,0
}
    80201ea2:	60e2                	ld	ra,24(sp)
    80201ea4:	6442                	ld	s0,16(sp)
    80201ea6:	64a2                	ld	s1,8(sp)
    80201ea8:	6902                	ld	s2,0(sp)
    80201eaa:	6105                	addi	sp,sp,32
    80201eac:	8082                	ret
    if((sz = uvmalloc(p->pagetable, p->kpagetable, sz, sz + n)) == 0) {
    80201eae:	00f486bb          	addw	a3,s1,a5
    80201eb2:	1682                	slli	a3,a3,0x20
    80201eb4:	9281                	srli	a3,a3,0x20
    80201eb6:	1602                	slli	a2,a2,0x20
    80201eb8:	9201                	srli	a2,a2,0x20
    80201eba:	6d2c                	ld	a1,88(a0)
    80201ebc:	6928                	ld	a0,80(a0)
    80201ebe:	fffff097          	auipc	ra,0xfffff
    80201ec2:	1d8080e7          	jalr	472(ra) # 80201096 <uvmalloc>
    80201ec6:	0005079b          	sext.w	a5,a0
    80201eca:	f7f9                	bnez	a5,80201e98 <growproc+0x26>
      return -1;
    80201ecc:	557d                	li	a0,-1
    80201ece:	bfd1                	j	80201ea2 <growproc+0x30>
    sz = uvmdealloc(p->pagetable, p->kpagetable, sz, sz + n);
    80201ed0:	00f486bb          	addw	a3,s1,a5
    80201ed4:	1682                	slli	a3,a3,0x20
    80201ed6:	9281                	srli	a3,a3,0x20
    80201ed8:	1602                	slli	a2,a2,0x20
    80201eda:	9201                	srli	a2,a2,0x20
    80201edc:	6d2c                	ld	a1,88(a0)
    80201ede:	6928                	ld	a0,80(a0)
    80201ee0:	fffff097          	auipc	ra,0xfffff
    80201ee4:	14a080e7          	jalr	330(ra) # 8020102a <uvmdealloc>
    80201ee8:	0005079b          	sext.w	a5,a0
    80201eec:	b775                	j	80201e98 <growproc+0x26>

0000000080201eee <fork>:
{
    80201eee:	7139                	addi	sp,sp,-64
    80201ef0:	fc06                	sd	ra,56(sp)
    80201ef2:	f822                	sd	s0,48(sp)
    80201ef4:	f426                	sd	s1,40(sp)
    80201ef6:	f04a                	sd	s2,32(sp)
    80201ef8:	ec4e                	sd	s3,24(sp)
    80201efa:	e852                	sd	s4,16(sp)
    80201efc:	e456                	sd	s5,8(sp)
    80201efe:	0080                	addi	s0,sp,64
  struct proc *p = myproc();
    80201f00:	00000097          	auipc	ra,0x0
    80201f04:	bd8080e7          	jalr	-1064(ra) # 80201ad8 <myproc>
    80201f08:	8aaa                	mv	s5,a0
  if((np = allocproc()) == NULL){
    80201f0a:	00000097          	auipc	ra,0x0
    80201f0e:	e0a080e7          	jalr	-502(ra) # 80201d14 <allocproc>
    80201f12:	c965                	beqz	a0,80202002 <fork+0x114>
    80201f14:	8a2a                	mv	s4,a0
  if(uvmcopy(p->pagetable, np->pagetable, np->kpagetable, p->sz) < 0){
    80201f16:	048ab683          	ld	a3,72(s5)
    80201f1a:	6d30                	ld	a2,88(a0)
    80201f1c:	692c                	ld	a1,80(a0)
    80201f1e:	050ab503          	ld	a0,80(s5)
    80201f22:	fffff097          	auipc	ra,0xfffff
    80201f26:	310080e7          	jalr	784(ra) # 80201232 <uvmcopy>
    80201f2a:	04054e63          	bltz	a0,80201f86 <fork+0x98>
  np->sz = p->sz;
    80201f2e:	048ab783          	ld	a5,72(s5)
    80201f32:	04fa3423          	sd	a5,72(s4)
  np->parent = p;
    80201f36:	035a3023          	sd	s5,32(s4)
  np->tmask = p->tmask;
    80201f3a:	460aa783          	lw	a5,1120(s5)
    80201f3e:	46fa2023          	sw	a5,1120(s4)
  *(np->trapframe) = *(p->trapframe);
    80201f42:	060ab683          	ld	a3,96(s5)
    80201f46:	87b6                	mv	a5,a3
    80201f48:	060a3703          	ld	a4,96(s4)
    80201f4c:	12068693          	addi	a3,a3,288
    80201f50:	0007b803          	ld	a6,0(a5)
    80201f54:	6788                	ld	a0,8(a5)
    80201f56:	6b8c                	ld	a1,16(a5)
    80201f58:	6f90                	ld	a2,24(a5)
    80201f5a:	01073023          	sd	a6,0(a4) # 1000 <_entry-0x801ff000>
    80201f5e:	e708                	sd	a0,8(a4)
    80201f60:	eb0c                	sd	a1,16(a4)
    80201f62:	ef10                	sd	a2,24(a4)
    80201f64:	02078793          	addi	a5,a5,32
    80201f68:	02070713          	addi	a4,a4,32
    80201f6c:	fed792e3          	bne	a5,a3,80201f50 <fork+0x62>
  np->trapframe->a0 = 0;
    80201f70:	060a3783          	ld	a5,96(s4)
    80201f74:	0607b823          	sd	zero,112(a5)
  for(i = 0; i < NOFILE; i++)
    80201f78:	0d8a8493          	addi	s1,s5,216
    80201f7c:	0d8a0913          	addi	s2,s4,216
    80201f80:	448a8993          	addi	s3,s5,1096
    80201f84:	a03d                	j	80201fb2 <fork+0xc4>
    freeproc(np);
    80201f86:	8552                	mv	a0,s4
    80201f88:	00000097          	auipc	ra,0x0
    80201f8c:	d22080e7          	jalr	-734(ra) # 80201caa <freeproc>
    release(&np->lock);
    80201f90:	8552                	mv	a0,s4
    80201f92:	ffffe097          	auipc	ra,0xffffe
    80201f96:	7b6080e7          	jalr	1974(ra) # 80200748 <release>
    return -1;
    80201f9a:	54fd                	li	s1,-1
    80201f9c:	a889                	j	80201fee <fork+0x100>
      np->ofile[i] = filedup(p->ofile[i]);
    80201f9e:	00002097          	auipc	ra,0x2
    80201fa2:	dd8080e7          	jalr	-552(ra) # 80203d76 <filedup>
    80201fa6:	00a93023          	sd	a0,0(s2)
  for(i = 0; i < NOFILE; i++)
    80201faa:	04a1                	addi	s1,s1,8
    80201fac:	0921                	addi	s2,s2,8
    80201fae:	01348563          	beq	s1,s3,80201fb8 <fork+0xca>
    if(p->ofile[i])
    80201fb2:	6088                	ld	a0,0(s1)
    80201fb4:	f56d                	bnez	a0,80201f9e <fork+0xb0>
    80201fb6:	bfd5                	j	80201faa <fork+0xbc>
  np->cwd = edup(p->cwd);
    80201fb8:	448ab503          	ld	a0,1096(s5)
    80201fbc:	00005097          	auipc	ra,0x5
    80201fc0:	a44080e7          	jalr	-1468(ra) # 80206a00 <edup>
    80201fc4:	44aa3423          	sd	a0,1096(s4)
  safestrcpy(np->name, p->name, sizeof(p->name));
    80201fc8:	4641                	li	a2,16
    80201fca:	450a8593          	addi	a1,s5,1104
    80201fce:	450a0513          	addi	a0,s4,1104
    80201fd2:	fffff097          	auipc	ra,0xfffff
    80201fd6:	910080e7          	jalr	-1776(ra) # 802008e2 <safestrcpy>
  pid = np->pid;
    80201fda:	038a2483          	lw	s1,56(s4)
  np->state = RUNNABLE;
    80201fde:	4789                	li	a5,2
    80201fe0:	00fa2c23          	sw	a5,24(s4)
  release(&np->lock);
    80201fe4:	8552                	mv	a0,s4
    80201fe6:	ffffe097          	auipc	ra,0xffffe
    80201fea:	762080e7          	jalr	1890(ra) # 80200748 <release>
}
    80201fee:	8526                	mv	a0,s1
    80201ff0:	70e2                	ld	ra,56(sp)
    80201ff2:	7442                	ld	s0,48(sp)
    80201ff4:	74a2                	ld	s1,40(sp)
    80201ff6:	7902                	ld	s2,32(sp)
    80201ff8:	69e2                	ld	s3,24(sp)
    80201ffa:	6a42                	ld	s4,16(sp)
    80201ffc:	6aa2                	ld	s5,8(sp)
    80201ffe:	6121                	addi	sp,sp,64
    80202000:	8082                	ret
    return -1;
    80202002:	54fd                	li	s1,-1
    80202004:	b7ed                	j	80201fee <fork+0x100>

0000000080202006 <clone>:
{
    80202006:	7139                	addi	sp,sp,-64
    80202008:	fc06                	sd	ra,56(sp)
    8020200a:	f822                	sd	s0,48(sp)
    8020200c:	f426                	sd	s1,40(sp)
    8020200e:	f04a                	sd	s2,32(sp)
    80202010:	ec4e                	sd	s3,24(sp)
    80202012:	e852                	sd	s4,16(sp)
    80202014:	e456                	sd	s5,8(sp)
    80202016:	0080                	addi	s0,sp,64
  struct proc *p = myproc();
    80202018:	00000097          	auipc	ra,0x0
    8020201c:	ac0080e7          	jalr	-1344(ra) # 80201ad8 <myproc>
    80202020:	8aaa                	mv	s5,a0
  if((np = allocproc()) == NULL){
    80202022:	00000097          	auipc	ra,0x0
    80202026:	cf2080e7          	jalr	-782(ra) # 80201d14 <allocproc>
    8020202a:	10050863          	beqz	a0,8020213a <clone+0x134>
    8020202e:	8a2a                	mv	s4,a0
  if(uvmcopy(p->pagetable, np->pagetable, np->kpagetable, p->sz) < 0){
    80202030:	048ab683          	ld	a3,72(s5)
    80202034:	6d30                	ld	a2,88(a0)
    80202036:	692c                	ld	a1,80(a0)
    80202038:	050ab503          	ld	a0,80(s5)
    8020203c:	fffff097          	auipc	ra,0xfffff
    80202040:	1f6080e7          	jalr	502(ra) # 80201232 <uvmcopy>
    80202044:	06054d63          	bltz	a0,802020be <clone+0xb8>
  np->sz = p->sz;
    80202048:	048ab783          	ld	a5,72(s5)
    8020204c:	04fa3423          	sd	a5,72(s4)
  np->parent = p;
    80202050:	035a3023          	sd	s5,32(s4)
  np->tmask = p->tmask;
    80202054:	460aa783          	lw	a5,1120(s5)
    80202058:	46fa2023          	sw	a5,1120(s4)
  *(np->trapframe) = *(p->trapframe);
    8020205c:	060ab683          	ld	a3,96(s5)
    80202060:	87b6                	mv	a5,a3
    80202062:	060a3703          	ld	a4,96(s4)
    80202066:	12068693          	addi	a3,a3,288
    8020206a:	0007b803          	ld	a6,0(a5)
    8020206e:	6788                	ld	a0,8(a5)
    80202070:	6b8c                	ld	a1,16(a5)
    80202072:	6f90                	ld	a2,24(a5)
    80202074:	01073023          	sd	a6,0(a4)
    80202078:	e708                	sd	a0,8(a4)
    8020207a:	eb0c                	sd	a1,16(a4)
    8020207c:	ef10                	sd	a2,24(a4)
    8020207e:	02078793          	addi	a5,a5,32
    80202082:	02070713          	addi	a4,a4,32
    80202086:	fed792e3          	bne	a5,a3,8020206a <clone+0x64>
  uint64 stack = p->trapframe->a1;
    8020208a:	060ab783          	ld	a5,96(s5)
    8020208e:	7fbc                	ld	a5,120(a5)
  if(stack!=0){
    80202090:	cf81                	beqz	a5,802020a8 <clone+0xa2>
    uint64 fn = *((uint64 *)((char *)(p->trapframe->a1)));
    80202092:	6394                	ld	a3,0(a5)
    uint64 arg = *((uint64 *)((char *)(p->trapframe->a1) + 8));
    80202094:	6798                	ld	a4,8(a5)
    np->trapframe->sp = stack;
    80202096:	060a3603          	ld	a2,96(s4)
    8020209a:	fa1c                	sd	a5,48(a2)
    np->trapframe->epc = fn;
    8020209c:	060a3783          	ld	a5,96(s4)
    802020a0:	ef94                	sd	a3,24(a5)
    np->trapframe->a1 = arg;
    802020a2:	060a3783          	ld	a5,96(s4)
    802020a6:	ffb8                	sd	a4,120(a5)
  np->trapframe->a0 = 0;
    802020a8:	060a3783          	ld	a5,96(s4)
    802020ac:	0607b823          	sd	zero,112(a5)
  for(i = 0; i < NOFILE; i++)
    802020b0:	0d8a8493          	addi	s1,s5,216
    802020b4:	0d8a0913          	addi	s2,s4,216
    802020b8:	448a8993          	addi	s3,s5,1096
    802020bc:	a03d                	j	802020ea <clone+0xe4>
    freeproc(np);
    802020be:	8552                	mv	a0,s4
    802020c0:	00000097          	auipc	ra,0x0
    802020c4:	bea080e7          	jalr	-1046(ra) # 80201caa <freeproc>
    release(&np->lock);
    802020c8:	8552                	mv	a0,s4
    802020ca:	ffffe097          	auipc	ra,0xffffe
    802020ce:	67e080e7          	jalr	1662(ra) # 80200748 <release>
    return -1;
    802020d2:	54fd                	li	s1,-1
    802020d4:	a889                	j	80202126 <clone+0x120>
      np->ofile[i] = filedup(p->ofile[i]);
    802020d6:	00002097          	auipc	ra,0x2
    802020da:	ca0080e7          	jalr	-864(ra) # 80203d76 <filedup>
    802020de:	00a93023          	sd	a0,0(s2)
  for(i = 0; i < NOFILE; i++)
    802020e2:	04a1                	addi	s1,s1,8
    802020e4:	0921                	addi	s2,s2,8
    802020e6:	01348563          	beq	s1,s3,802020f0 <clone+0xea>
    if(p->ofile[i])
    802020ea:	6088                	ld	a0,0(s1)
    802020ec:	f56d                	bnez	a0,802020d6 <clone+0xd0>
    802020ee:	bfd5                	j	802020e2 <clone+0xdc>
  np->cwd = edup(p->cwd);
    802020f0:	448ab503          	ld	a0,1096(s5)
    802020f4:	00005097          	auipc	ra,0x5
    802020f8:	90c080e7          	jalr	-1780(ra) # 80206a00 <edup>
    802020fc:	44aa3423          	sd	a0,1096(s4)
  safestrcpy(np->name, p->name, sizeof(p->name));
    80202100:	4641                	li	a2,16
    80202102:	450a8593          	addi	a1,s5,1104
    80202106:	450a0513          	addi	a0,s4,1104
    8020210a:	ffffe097          	auipc	ra,0xffffe
    8020210e:	7d8080e7          	jalr	2008(ra) # 802008e2 <safestrcpy>
  pid = np->pid;
    80202112:	038a2483          	lw	s1,56(s4)
  np->state = RUNNABLE;
    80202116:	4789                	li	a5,2
    80202118:	00fa2c23          	sw	a5,24(s4)
  release(&np->lock);
    8020211c:	8552                	mv	a0,s4
    8020211e:	ffffe097          	auipc	ra,0xffffe
    80202122:	62a080e7          	jalr	1578(ra) # 80200748 <release>
}
    80202126:	8526                	mv	a0,s1
    80202128:	70e2                	ld	ra,56(sp)
    8020212a:	7442                	ld	s0,48(sp)
    8020212c:	74a2                	ld	s1,40(sp)
    8020212e:	7902                	ld	s2,32(sp)
    80202130:	69e2                	ld	s3,24(sp)
    80202132:	6a42                	ld	s4,16(sp)
    80202134:	6aa2                	ld	s5,8(sp)
    80202136:	6121                	addi	sp,sp,64
    80202138:	8082                	ret
    return -1;
    8020213a:	54fd                	li	s1,-1
    8020213c:	b7ed                	j	80202126 <clone+0x120>

000000008020213e <reparent>:
{
    8020213e:	7179                	addi	sp,sp,-48
    80202140:	f406                	sd	ra,40(sp)
    80202142:	f022                	sd	s0,32(sp)
    80202144:	ec26                	sd	s1,24(sp)
    80202146:	e84a                	sd	s2,16(sp)
    80202148:	e44e                	sd	s3,8(sp)
    8020214a:	e052                	sd	s4,0(sp)
    8020214c:	1800                	addi	s0,sp,48
    8020214e:	892a                	mv	s2,a0
  for(pp = proc; pp < &proc[NPROC]; pp++){
    80202150:	0003a497          	auipc	s1,0x3a
    80202154:	03048493          	addi	s1,s1,48 # 8023c180 <proc>
      pp->parent = initproc;
    80202158:	0003aa17          	auipc	s4,0x3a
    8020215c:	f08a0a13          	addi	s4,s4,-248 # 8023c060 <pid_lock>
  for(pp = proc; pp < &proc[NPROC]; pp++){
    80202160:	00048997          	auipc	s3,0x48
    80202164:	c7098993          	addi	s3,s3,-912 # 80249dd0 <bcache>
    80202168:	a029                	j	80202172 <reparent+0x34>
    8020216a:	46848493          	addi	s1,s1,1128
    8020216e:	03348363          	beq	s1,s3,80202194 <reparent+0x56>
    if(pp->parent == p){
    80202172:	709c                	ld	a5,32(s1)
    80202174:	ff279be3          	bne	a5,s2,8020216a <reparent+0x2c>
      acquire(&pp->lock);
    80202178:	8526                	mv	a0,s1
    8020217a:	ffffe097          	auipc	ra,0xffffe
    8020217e:	57a080e7          	jalr	1402(ra) # 802006f4 <acquire>
      pp->parent = initproc;
    80202182:	118a3783          	ld	a5,280(s4)
    80202186:	f09c                	sd	a5,32(s1)
      release(&pp->lock);
    80202188:	8526                	mv	a0,s1
    8020218a:	ffffe097          	auipc	ra,0xffffe
    8020218e:	5be080e7          	jalr	1470(ra) # 80200748 <release>
    80202192:	bfe1                	j	8020216a <reparent+0x2c>
}
    80202194:	70a2                	ld	ra,40(sp)
    80202196:	7402                	ld	s0,32(sp)
    80202198:	64e2                	ld	s1,24(sp)
    8020219a:	6942                	ld	s2,16(sp)
    8020219c:	69a2                	ld	s3,8(sp)
    8020219e:	6a02                	ld	s4,0(sp)
    802021a0:	6145                	addi	sp,sp,48
    802021a2:	8082                	ret

00000000802021a4 <scheduler>:
{
    802021a4:	715d                	addi	sp,sp,-80
    802021a6:	e486                	sd	ra,72(sp)
    802021a8:	e0a2                	sd	s0,64(sp)
    802021aa:	fc26                	sd	s1,56(sp)
    802021ac:	f84a                	sd	s2,48(sp)
    802021ae:	f44e                	sd	s3,40(sp)
    802021b0:	f052                	sd	s4,32(sp)
    802021b2:	ec56                	sd	s5,24(sp)
    802021b4:	e85a                	sd	s6,16(sp)
    802021b6:	e45e                	sd	s7,8(sp)
    802021b8:	e062                	sd	s8,0(sp)
    802021ba:	0880                	addi	s0,sp,80
    802021bc:	8792                	mv	a5,tp
  int id = r_tp();
    802021be:	2781                	sext.w	a5,a5
  c->proc = 0;
    802021c0:	00779b13          	slli	s6,a5,0x7
    802021c4:	0003a717          	auipc	a4,0x3a
    802021c8:	e9c70713          	addi	a4,a4,-356 # 8023c060 <pid_lock>
    802021cc:	975a                	add	a4,a4,s6
    802021ce:	00073c23          	sd	zero,24(a4)
        swtch(&c->context, &p->context);
    802021d2:	0003a717          	auipc	a4,0x3a
    802021d6:	eae70713          	addi	a4,a4,-338 # 8023c080 <cpus+0x8>
    802021da:	9b3a                	add	s6,s6,a4
        c->proc = p;
    802021dc:	079e                	slli	a5,a5,0x7
    802021de:	0003aa97          	auipc	s5,0x3a
    802021e2:	e82a8a93          	addi	s5,s5,-382 # 8023c060 <pid_lock>
    802021e6:	9abe                	add	s5,s5,a5
        w_satp(MAKE_SATP(p->kpagetable));
    802021e8:	5a7d                	li	s4,-1
    802021ea:	1a7e                	slli	s4,s4,0x3f
        w_satp(MAKE_SATP(kernel_pagetable));
    802021ec:	00031b97          	auipc	s7,0x31
    802021f0:	134bbb83          	ld	s7,308(s7) # 80233320 <_GLOBAL_OFFSET_TABLE_+0x48>
    802021f4:	a8a5                	j	8020226c <scheduler+0xc8>
      release(&p->lock);
    802021f6:	8526                	mv	a0,s1
    802021f8:	ffffe097          	auipc	ra,0xffffe
    802021fc:	550080e7          	jalr	1360(ra) # 80200748 <release>
    for(p = proc; p < &proc[NPROC]; p++) {
    80202200:	46848493          	addi	s1,s1,1128
    80202204:	05248a63          	beq	s1,s2,80202258 <scheduler+0xb4>
      acquire(&p->lock);
    80202208:	8526                	mv	a0,s1
    8020220a:	ffffe097          	auipc	ra,0xffffe
    8020220e:	4ea080e7          	jalr	1258(ra) # 802006f4 <acquire>
      if(p->state == RUNNABLE) {
    80202212:	4c9c                	lw	a5,24(s1)
    80202214:	ff3791e3          	bne	a5,s3,802021f6 <scheduler+0x52>
        p->state = RUNNING;
    80202218:	478d                	li	a5,3
    8020221a:	cc9c                	sw	a5,24(s1)
        c->proc = p;
    8020221c:	009abc23          	sd	s1,24(s5)
        w_satp(MAKE_SATP(p->kpagetable));
    80202220:	6cbc                	ld	a5,88(s1)
    80202222:	83b1                	srli	a5,a5,0xc
    80202224:	0147e7b3          	or	a5,a5,s4
  asm volatile("csrw satp, %0" : : "r" (x));
    80202228:	18079073          	csrw	satp,a5
  asm volatile("sfence.vma");
    8020222c:	12000073          	sfence.vma
        swtch(&c->context, &p->context);
    80202230:	06848593          	addi	a1,s1,104
    80202234:	855a                	mv	a0,s6
    80202236:	00000097          	auipc	ra,0x0
    8020223a:	62a080e7          	jalr	1578(ra) # 80202860 <swtch>
        w_satp(MAKE_SATP(kernel_pagetable));
    8020223e:	000bb783          	ld	a5,0(s7)
    80202242:	83b1                	srli	a5,a5,0xc
    80202244:	0147e7b3          	or	a5,a5,s4
  asm volatile("csrw satp, %0" : : "r" (x));
    80202248:	18079073          	csrw	satp,a5
  asm volatile("sfence.vma");
    8020224c:	12000073          	sfence.vma
        c->proc = 0;
    80202250:	000abc23          	sd	zero,24(s5)
        found = 1;
    80202254:	4c05                	li	s8,1
    80202256:	b745                	j	802021f6 <scheduler+0x52>
    if(found == 0) {
    80202258:	000c1a63          	bnez	s8,8020226c <scheduler+0xc8>
  asm volatile("csrr %0, sstatus" : "=r" (x) );
    8020225c:	100027f3          	csrr	a5,sstatus
  w_sstatus(r_sstatus() | SSTATUS_SIE);
    80202260:	0027e793          	ori	a5,a5,2
  asm volatile("csrw sstatus, %0" : : "r" (x));
    80202264:	10079073          	csrw	sstatus,a5
      asm volatile("wfi");
    80202268:	10500073          	wfi
  asm volatile("csrr %0, sstatus" : "=r" (x) );
    8020226c:	100027f3          	csrr	a5,sstatus
  w_sstatus(r_sstatus() | SSTATUS_SIE);
    80202270:	0027e793          	ori	a5,a5,2
  asm volatile("csrw sstatus, %0" : : "r" (x));
    80202274:	10079073          	csrw	sstatus,a5
    int found = 0;
    80202278:	4c01                	li	s8,0
    for(p = proc; p < &proc[NPROC]; p++) {
    8020227a:	0003a497          	auipc	s1,0x3a
    8020227e:	f0648493          	addi	s1,s1,-250 # 8023c180 <proc>
      if(p->state == RUNNABLE) {
    80202282:	4989                	li	s3,2
    for(p = proc; p < &proc[NPROC]; p++) {
    80202284:	00048917          	auipc	s2,0x48
    80202288:	b4c90913          	addi	s2,s2,-1204 # 80249dd0 <bcache>
    8020228c:	bfb5                	j	80202208 <scheduler+0x64>

000000008020228e <sched>:
{
    8020228e:	7179                	addi	sp,sp,-48
    80202290:	f406                	sd	ra,40(sp)
    80202292:	f022                	sd	s0,32(sp)
    80202294:	ec26                	sd	s1,24(sp)
    80202296:	e84a                	sd	s2,16(sp)
    80202298:	e44e                	sd	s3,8(sp)
    8020229a:	1800                	addi	s0,sp,48
  struct proc *p = myproc();
    8020229c:	00000097          	auipc	ra,0x0
    802022a0:	83c080e7          	jalr	-1988(ra) # 80201ad8 <myproc>
    802022a4:	84aa                	mv	s1,a0
  if(!holding(&p->lock))
    802022a6:	ffffe097          	auipc	ra,0xffffe
    802022aa:	420080e7          	jalr	1056(ra) # 802006c6 <holding>
    802022ae:	c93d                	beqz	a0,80202324 <sched+0x96>
  asm volatile("mv %0, tp" : "=r" (x) );
    802022b0:	8792                	mv	a5,tp
  if(mycpu()->noff != 1)
    802022b2:	2781                	sext.w	a5,a5
    802022b4:	079e                	slli	a5,a5,0x7
    802022b6:	0003a717          	auipc	a4,0x3a
    802022ba:	daa70713          	addi	a4,a4,-598 # 8023c060 <pid_lock>
    802022be:	97ba                	add	a5,a5,a4
    802022c0:	0907a703          	lw	a4,144(a5)
    802022c4:	4785                	li	a5,1
    802022c6:	06f71763          	bne	a4,a5,80202334 <sched+0xa6>
  if(p->state == RUNNING)
    802022ca:	4c98                	lw	a4,24(s1)
    802022cc:	478d                	li	a5,3
    802022ce:	06f70b63          	beq	a4,a5,80202344 <sched+0xb6>
  asm volatile("csrr %0, sstatus" : "=r" (x) );
    802022d2:	100027f3          	csrr	a5,sstatus
  return (x & SSTATUS_SIE) != 0;
    802022d6:	8b89                	andi	a5,a5,2
  if(intr_get())
    802022d8:	efb5                	bnez	a5,80202354 <sched+0xc6>
  asm volatile("mv %0, tp" : "=r" (x) );
    802022da:	8792                	mv	a5,tp
  intena = mycpu()->intena;
    802022dc:	0003a917          	auipc	s2,0x3a
    802022e0:	d8490913          	addi	s2,s2,-636 # 8023c060 <pid_lock>
    802022e4:	2781                	sext.w	a5,a5
    802022e6:	079e                	slli	a5,a5,0x7
    802022e8:	97ca                	add	a5,a5,s2
    802022ea:	0947a983          	lw	s3,148(a5)
    802022ee:	8792                	mv	a5,tp
  swtch(&p->context, &mycpu()->context);
    802022f0:	2781                	sext.w	a5,a5
    802022f2:	079e                	slli	a5,a5,0x7
    802022f4:	0003a597          	auipc	a1,0x3a
    802022f8:	d8c58593          	addi	a1,a1,-628 # 8023c080 <cpus+0x8>
    802022fc:	95be                	add	a1,a1,a5
    802022fe:	06848513          	addi	a0,s1,104
    80202302:	00000097          	auipc	ra,0x0
    80202306:	55e080e7          	jalr	1374(ra) # 80202860 <swtch>
    8020230a:	8792                	mv	a5,tp
  mycpu()->intena = intena;
    8020230c:	2781                	sext.w	a5,a5
    8020230e:	079e                	slli	a5,a5,0x7
    80202310:	993e                	add	s2,s2,a5
    80202312:	09392a23          	sw	s3,148(s2)
}
    80202316:	70a2                	ld	ra,40(sp)
    80202318:	7402                	ld	s0,32(sp)
    8020231a:	64e2                	ld	s1,24(sp)
    8020231c:	6942                	ld	s2,16(sp)
    8020231e:	69a2                	ld	s3,8(sp)
    80202320:	6145                	addi	sp,sp,48
    80202322:	8082                	ret
    panic("sched p->lock");
    80202324:	00007517          	auipc	a0,0x7
    80202328:	3ac50513          	addi	a0,a0,940 # 802096d0 <digits+0x350>
    8020232c:	ffffe097          	auipc	ra,0xffffe
    80202330:	e18080e7          	jalr	-488(ra) # 80200144 <panic>
    panic("sched locks");
    80202334:	00007517          	auipc	a0,0x7
    80202338:	3ac50513          	addi	a0,a0,940 # 802096e0 <digits+0x360>
    8020233c:	ffffe097          	auipc	ra,0xffffe
    80202340:	e08080e7          	jalr	-504(ra) # 80200144 <panic>
    panic("sched running");
    80202344:	00007517          	auipc	a0,0x7
    80202348:	3ac50513          	addi	a0,a0,940 # 802096f0 <digits+0x370>
    8020234c:	ffffe097          	auipc	ra,0xffffe
    80202350:	df8080e7          	jalr	-520(ra) # 80200144 <panic>
    panic("sched interruptible");
    80202354:	00007517          	auipc	a0,0x7
    80202358:	3ac50513          	addi	a0,a0,940 # 80209700 <digits+0x380>
    8020235c:	ffffe097          	auipc	ra,0xffffe
    80202360:	de8080e7          	jalr	-536(ra) # 80200144 <panic>

0000000080202364 <exit>:
{
    80202364:	7179                	addi	sp,sp,-48
    80202366:	f406                	sd	ra,40(sp)
    80202368:	f022                	sd	s0,32(sp)
    8020236a:	ec26                	sd	s1,24(sp)
    8020236c:	e84a                	sd	s2,16(sp)
    8020236e:	e44e                	sd	s3,8(sp)
    80202370:	e052                	sd	s4,0(sp)
    80202372:	1800                	addi	s0,sp,48
    80202374:	8a2a                	mv	s4,a0
  struct proc *p = myproc();
    80202376:	fffff097          	auipc	ra,0xfffff
    8020237a:	762080e7          	jalr	1890(ra) # 80201ad8 <myproc>
    8020237e:	89aa                	mv	s3,a0
  if(p == initproc)
    80202380:	0003a797          	auipc	a5,0x3a
    80202384:	df87b783          	ld	a5,-520(a5) # 8023c178 <initproc>
    80202388:	0d850493          	addi	s1,a0,216
    8020238c:	44850913          	addi	s2,a0,1096
    80202390:	02a79363          	bne	a5,a0,802023b6 <exit+0x52>
    panic("init exiting");
    80202394:	00007517          	auipc	a0,0x7
    80202398:	38450513          	addi	a0,a0,900 # 80209718 <digits+0x398>
    8020239c:	ffffe097          	auipc	ra,0xffffe
    802023a0:	da8080e7          	jalr	-600(ra) # 80200144 <panic>
      fileclose(f);
    802023a4:	00002097          	auipc	ra,0x2
    802023a8:	a24080e7          	jalr	-1500(ra) # 80203dc8 <fileclose>
      p->ofile[fd] = 0;
    802023ac:	0004b023          	sd	zero,0(s1)
  for(int fd = 0; fd < NOFILE; fd++){
    802023b0:	04a1                	addi	s1,s1,8
    802023b2:	01248563          	beq	s1,s2,802023bc <exit+0x58>
    if(p->ofile[fd]){
    802023b6:	6088                	ld	a0,0(s1)
    802023b8:	f575                	bnez	a0,802023a4 <exit+0x40>
    802023ba:	bfdd                	j	802023b0 <exit+0x4c>
  eput(p->cwd);
    802023bc:	4489b503          	ld	a0,1096(s3)
    802023c0:	00005097          	auipc	ra,0x5
    802023c4:	922080e7          	jalr	-1758(ra) # 80206ce2 <eput>
  p->cwd = 0;
    802023c8:	4409b423          	sd	zero,1096(s3)
  acquire(&initproc->lock);
    802023cc:	0003a497          	auipc	s1,0x3a
    802023d0:	c9448493          	addi	s1,s1,-876 # 8023c060 <pid_lock>
    802023d4:	1184b503          	ld	a0,280(s1)
    802023d8:	ffffe097          	auipc	ra,0xffffe
    802023dc:	31c080e7          	jalr	796(ra) # 802006f4 <acquire>
  wakeup1(initproc);
    802023e0:	1184b503          	ld	a0,280(s1)
    802023e4:	fffff097          	auipc	ra,0xfffff
    802023e8:	4f8080e7          	jalr	1272(ra) # 802018dc <wakeup1>
  release(&initproc->lock);
    802023ec:	1184b503          	ld	a0,280(s1)
    802023f0:	ffffe097          	auipc	ra,0xffffe
    802023f4:	358080e7          	jalr	856(ra) # 80200748 <release>
  acquire(&p->lock);
    802023f8:	854e                	mv	a0,s3
    802023fa:	ffffe097          	auipc	ra,0xffffe
    802023fe:	2fa080e7          	jalr	762(ra) # 802006f4 <acquire>
  struct proc *original_parent = p->parent;
    80202402:	0209b483          	ld	s1,32(s3)
  release(&p->lock);
    80202406:	854e                	mv	a0,s3
    80202408:	ffffe097          	auipc	ra,0xffffe
    8020240c:	340080e7          	jalr	832(ra) # 80200748 <release>
  acquire(&original_parent->lock);
    80202410:	8526                	mv	a0,s1
    80202412:	ffffe097          	auipc	ra,0xffffe
    80202416:	2e2080e7          	jalr	738(ra) # 802006f4 <acquire>
  acquire(&p->lock);
    8020241a:	854e                	mv	a0,s3
    8020241c:	ffffe097          	auipc	ra,0xffffe
    80202420:	2d8080e7          	jalr	728(ra) # 802006f4 <acquire>
  reparent(p);
    80202424:	854e                	mv	a0,s3
    80202426:	00000097          	auipc	ra,0x0
    8020242a:	d18080e7          	jalr	-744(ra) # 8020213e <reparent>
  wakeup1(original_parent);
    8020242e:	8526                	mv	a0,s1
    80202430:	fffff097          	auipc	ra,0xfffff
    80202434:	4ac080e7          	jalr	1196(ra) # 802018dc <wakeup1>
  p->xstate = status;
    80202438:	0349aa23          	sw	s4,52(s3)
  p->state = ZOMBIE;
    8020243c:	4791                	li	a5,4
    8020243e:	00f9ac23          	sw	a5,24(s3)
  release(&original_parent->lock);
    80202442:	8526                	mv	a0,s1
    80202444:	ffffe097          	auipc	ra,0xffffe
    80202448:	304080e7          	jalr	772(ra) # 80200748 <release>
  sched();
    8020244c:	00000097          	auipc	ra,0x0
    80202450:	e42080e7          	jalr	-446(ra) # 8020228e <sched>
  panic("zombie exit");
    80202454:	00007517          	auipc	a0,0x7
    80202458:	2d450513          	addi	a0,a0,724 # 80209728 <digits+0x3a8>
    8020245c:	ffffe097          	auipc	ra,0xffffe
    80202460:	ce8080e7          	jalr	-792(ra) # 80200144 <panic>

0000000080202464 <yield>:
{
    80202464:	1101                	addi	sp,sp,-32
    80202466:	ec06                	sd	ra,24(sp)
    80202468:	e822                	sd	s0,16(sp)
    8020246a:	e426                	sd	s1,8(sp)
    8020246c:	1000                	addi	s0,sp,32
  struct proc *p = myproc();
    8020246e:	fffff097          	auipc	ra,0xfffff
    80202472:	66a080e7          	jalr	1642(ra) # 80201ad8 <myproc>
    80202476:	84aa                	mv	s1,a0
  acquire(&p->lock);
    80202478:	ffffe097          	auipc	ra,0xffffe
    8020247c:	27c080e7          	jalr	636(ra) # 802006f4 <acquire>
  p->state = RUNNABLE;
    80202480:	4789                	li	a5,2
    80202482:	cc9c                	sw	a5,24(s1)
  sched();
    80202484:	00000097          	auipc	ra,0x0
    80202488:	e0a080e7          	jalr	-502(ra) # 8020228e <sched>
  release(&p->lock);
    8020248c:	8526                	mv	a0,s1
    8020248e:	ffffe097          	auipc	ra,0xffffe
    80202492:	2ba080e7          	jalr	698(ra) # 80200748 <release>
}
    80202496:	60e2                	ld	ra,24(sp)
    80202498:	6442                	ld	s0,16(sp)
    8020249a:	64a2                	ld	s1,8(sp)
    8020249c:	6105                	addi	sp,sp,32
    8020249e:	8082                	ret

00000000802024a0 <sleep>:
{
    802024a0:	7179                	addi	sp,sp,-48
    802024a2:	f406                	sd	ra,40(sp)
    802024a4:	f022                	sd	s0,32(sp)
    802024a6:	ec26                	sd	s1,24(sp)
    802024a8:	e84a                	sd	s2,16(sp)
    802024aa:	e44e                	sd	s3,8(sp)
    802024ac:	1800                	addi	s0,sp,48
    802024ae:	89aa                	mv	s3,a0
    802024b0:	892e                	mv	s2,a1
  struct proc *p = myproc();
    802024b2:	fffff097          	auipc	ra,0xfffff
    802024b6:	626080e7          	jalr	1574(ra) # 80201ad8 <myproc>
    802024ba:	84aa                	mv	s1,a0
  if(lk != &p->lock){  //DOC: sleeplock0
    802024bc:	05250663          	beq	a0,s2,80202508 <sleep+0x68>
    acquire(&p->lock);  //DOC: sleeplock1
    802024c0:	ffffe097          	auipc	ra,0xffffe
    802024c4:	234080e7          	jalr	564(ra) # 802006f4 <acquire>
    release(lk);
    802024c8:	854a                	mv	a0,s2
    802024ca:	ffffe097          	auipc	ra,0xffffe
    802024ce:	27e080e7          	jalr	638(ra) # 80200748 <release>
  p->chan = chan;
    802024d2:	0334b423          	sd	s3,40(s1)
  p->state = SLEEPING;
    802024d6:	4785                	li	a5,1
    802024d8:	cc9c                	sw	a5,24(s1)
  sched();
    802024da:	00000097          	auipc	ra,0x0
    802024de:	db4080e7          	jalr	-588(ra) # 8020228e <sched>
  p->chan = 0;
    802024e2:	0204b423          	sd	zero,40(s1)
    release(&p->lock);
    802024e6:	8526                	mv	a0,s1
    802024e8:	ffffe097          	auipc	ra,0xffffe
    802024ec:	260080e7          	jalr	608(ra) # 80200748 <release>
    acquire(lk);
    802024f0:	854a                	mv	a0,s2
    802024f2:	ffffe097          	auipc	ra,0xffffe
    802024f6:	202080e7          	jalr	514(ra) # 802006f4 <acquire>
}
    802024fa:	70a2                	ld	ra,40(sp)
    802024fc:	7402                	ld	s0,32(sp)
    802024fe:	64e2                	ld	s1,24(sp)
    80202500:	6942                	ld	s2,16(sp)
    80202502:	69a2                	ld	s3,8(sp)
    80202504:	6145                	addi	sp,sp,48
    80202506:	8082                	ret
  p->chan = chan;
    80202508:	03353423          	sd	s3,40(a0)
  p->state = SLEEPING;
    8020250c:	4785                	li	a5,1
    8020250e:	cd1c                	sw	a5,24(a0)
  sched();
    80202510:	00000097          	auipc	ra,0x0
    80202514:	d7e080e7          	jalr	-642(ra) # 8020228e <sched>
  p->chan = 0;
    80202518:	0204b423          	sd	zero,40(s1)
  if(lk != &p->lock){
    8020251c:	bff9                	j	802024fa <sleep+0x5a>

000000008020251e <wait>:
{
    8020251e:	7159                	addi	sp,sp,-112
    80202520:	f486                	sd	ra,104(sp)
    80202522:	f0a2                	sd	s0,96(sp)
    80202524:	eca6                	sd	s1,88(sp)
    80202526:	e8ca                	sd	s2,80(sp)
    80202528:	e4ce                	sd	s3,72(sp)
    8020252a:	e0d2                	sd	s4,64(sp)
    8020252c:	fc56                	sd	s5,56(sp)
    8020252e:	f85a                	sd	s6,48(sp)
    80202530:	f45e                	sd	s7,40(sp)
    80202532:	f062                	sd	s8,32(sp)
    80202534:	ec66                	sd	s9,24(sp)
    80202536:	1880                	addi	s0,sp,112
    80202538:	8a2a                	mv	s4,a0
    8020253a:	8c2e                	mv	s8,a1
  struct proc *p = myproc();
    8020253c:	fffff097          	auipc	ra,0xfffff
    80202540:	59c080e7          	jalr	1436(ra) # 80201ad8 <myproc>
    80202544:	892a                	mv	s2,a0
  acquire(&p->lock);
    80202546:	ffffe097          	auipc	ra,0xffffe
    8020254a:	1ae080e7          	jalr	430(ra) # 802006f4 <acquire>
    havekids = 0;
    8020254e:	4c81                	li	s9,0
        if(np->state == ZOMBIE && (np->pid == upid || upid == -1)){
    80202550:	4a91                	li	s5,4
        havekids = 1;
    80202552:	4b05                	li	s6,1
        if(np->state == ZOMBIE && (np->pid == upid || upid == -1)){
    80202554:	5bfd                	li	s7,-1
    for(np = proc; np < &proc[NPROC]; np++){
    80202556:	00048997          	auipc	s3,0x48
    8020255a:	87a98993          	addi	s3,s3,-1926 # 80249dd0 <bcache>
    havekids = 0;
    8020255e:	8766                	mv	a4,s9
    for(np = proc; np < &proc[NPROC]; np++){
    80202560:	0003a497          	auipc	s1,0x3a
    80202564:	c2048493          	addi	s1,s1,-992 # 8023c180 <proc>
    80202568:	a03d                	j	80202596 <wait+0x78>
            release(&np->lock);
    8020256a:	8526                	mv	a0,s1
    8020256c:	ffffe097          	auipc	ra,0xffffe
    80202570:	1dc080e7          	jalr	476(ra) # 80200748 <release>
            release(&p->lock);
    80202574:	854a                	mv	a0,s2
    80202576:	ffffe097          	auipc	ra,0xffffe
    8020257a:	1d2080e7          	jalr	466(ra) # 80200748 <release>
            return -1;
    8020257e:	557d                	li	a0,-1
    80202580:	a841                	j	80202610 <wait+0xf2>
        release(&np->lock);
    80202582:	8526                	mv	a0,s1
    80202584:	ffffe097          	auipc	ra,0xffffe
    80202588:	1c4080e7          	jalr	452(ra) # 80200748 <release>
        havekids = 1;
    8020258c:	875a                	mv	a4,s6
    for(np = proc; np < &proc[NPROC]; np++){
    8020258e:	46848493          	addi	s1,s1,1128
    80202592:	07348563          	beq	s1,s3,802025fc <wait+0xde>
      if(np->parent == p){
    80202596:	709c                	ld	a5,32(s1)
    80202598:	ff279be3          	bne	a5,s2,8020258e <wait+0x70>
        acquire(&np->lock);
    8020259c:	8526                	mv	a0,s1
    8020259e:	ffffe097          	auipc	ra,0xffffe
    802025a2:	156080e7          	jalr	342(ra) # 802006f4 <acquire>
        if(np->state == ZOMBIE && (np->pid == upid || upid == -1)){
    802025a6:	4c9c                	lw	a5,24(s1)
    802025a8:	fd579de3          	bne	a5,s5,80202582 <wait+0x64>
    802025ac:	5c9c                	lw	a5,56(s1)
    802025ae:	01478563          	beq	a5,s4,802025b8 <wait+0x9a>
    802025b2:	fd7a18e3          	bne	s4,s7,80202582 <wait+0x64>
    802025b6:	8a3e                	mv	s4,a5
          status = np->xstate << 8; // note
    802025b8:	58dc                	lw	a5,52(s1)
    802025ba:	0087979b          	slliw	a5,a5,0x8
    802025be:	f8f42e23          	sw	a5,-100(s0)
          if(addr != 0 && copyout2(addr, (char *)&status, sizeof(status)) < 0) {
    802025c2:	000c0c63          	beqz	s8,802025da <wait+0xbc>
    802025c6:	4611                	li	a2,4
    802025c8:	f9c40593          	addi	a1,s0,-100
    802025cc:	8562                	mv	a0,s8
    802025ce:	fffff097          	auipc	ra,0xfffff
    802025d2:	e30080e7          	jalr	-464(ra) # 802013fe <copyout2>
    802025d6:	f8054ae3          	bltz	a0,8020256a <wait+0x4c>
          freeproc(np);
    802025da:	8526                	mv	a0,s1
    802025dc:	fffff097          	auipc	ra,0xfffff
    802025e0:	6ce080e7          	jalr	1742(ra) # 80201caa <freeproc>
          release(&np->lock);
    802025e4:	8526                	mv	a0,s1
    802025e6:	ffffe097          	auipc	ra,0xffffe
    802025ea:	162080e7          	jalr	354(ra) # 80200748 <release>
          release(&p->lock);
    802025ee:	854a                	mv	a0,s2
    802025f0:	ffffe097          	auipc	ra,0xffffe
    802025f4:	158080e7          	jalr	344(ra) # 80200748 <release>
          return pid;
    802025f8:	8552                	mv	a0,s4
    802025fa:	a819                	j	80202610 <wait+0xf2>
    if(!havekids || p->killed){
    802025fc:	c701                	beqz	a4,80202604 <wait+0xe6>
    802025fe:	03092783          	lw	a5,48(s2)
    80202602:	c785                	beqz	a5,8020262a <wait+0x10c>
      release(&p->lock);
    80202604:	854a                	mv	a0,s2
    80202606:	ffffe097          	auipc	ra,0xffffe
    8020260a:	142080e7          	jalr	322(ra) # 80200748 <release>
      return -1;
    8020260e:	557d                	li	a0,-1
}
    80202610:	70a6                	ld	ra,104(sp)
    80202612:	7406                	ld	s0,96(sp)
    80202614:	64e6                	ld	s1,88(sp)
    80202616:	6946                	ld	s2,80(sp)
    80202618:	69a6                	ld	s3,72(sp)
    8020261a:	6a06                	ld	s4,64(sp)
    8020261c:	7ae2                	ld	s5,56(sp)
    8020261e:	7b42                	ld	s6,48(sp)
    80202620:	7ba2                	ld	s7,40(sp)
    80202622:	7c02                	ld	s8,32(sp)
    80202624:	6ce2                	ld	s9,24(sp)
    80202626:	6165                	addi	sp,sp,112
    80202628:	8082                	ret
    sleep(p, &p->lock);  //DOC: wait-sleep
    8020262a:	85ca                	mv	a1,s2
    8020262c:	854a                	mv	a0,s2
    8020262e:	00000097          	auipc	ra,0x0
    80202632:	e72080e7          	jalr	-398(ra) # 802024a0 <sleep>
    havekids = 0;
    80202636:	b725                	j	8020255e <wait+0x40>

0000000080202638 <wakeup>:
{
    80202638:	7139                	addi	sp,sp,-64
    8020263a:	fc06                	sd	ra,56(sp)
    8020263c:	f822                	sd	s0,48(sp)
    8020263e:	f426                	sd	s1,40(sp)
    80202640:	f04a                	sd	s2,32(sp)
    80202642:	ec4e                	sd	s3,24(sp)
    80202644:	e852                	sd	s4,16(sp)
    80202646:	e456                	sd	s5,8(sp)
    80202648:	0080                	addi	s0,sp,64
    8020264a:	8a2a                	mv	s4,a0
  for(p = proc; p < &proc[NPROC]; p++) {
    8020264c:	0003a497          	auipc	s1,0x3a
    80202650:	b3448493          	addi	s1,s1,-1228 # 8023c180 <proc>
    if(p->state == SLEEPING && p->chan == chan) {
    80202654:	4985                	li	s3,1
      p->state = RUNNABLE;
    80202656:	4a89                	li	s5,2
  for(p = proc; p < &proc[NPROC]; p++) {
    80202658:	00047917          	auipc	s2,0x47
    8020265c:	77890913          	addi	s2,s2,1912 # 80249dd0 <bcache>
    80202660:	a811                	j	80202674 <wakeup+0x3c>
    release(&p->lock);
    80202662:	8526                	mv	a0,s1
    80202664:	ffffe097          	auipc	ra,0xffffe
    80202668:	0e4080e7          	jalr	228(ra) # 80200748 <release>
  for(p = proc; p < &proc[NPROC]; p++) {
    8020266c:	46848493          	addi	s1,s1,1128
    80202670:	03248063          	beq	s1,s2,80202690 <wakeup+0x58>
    acquire(&p->lock);
    80202674:	8526                	mv	a0,s1
    80202676:	ffffe097          	auipc	ra,0xffffe
    8020267a:	07e080e7          	jalr	126(ra) # 802006f4 <acquire>
    if(p->state == SLEEPING && p->chan == chan) {
    8020267e:	4c9c                	lw	a5,24(s1)
    80202680:	ff3791e3          	bne	a5,s3,80202662 <wakeup+0x2a>
    80202684:	749c                	ld	a5,40(s1)
    80202686:	fd479ee3          	bne	a5,s4,80202662 <wakeup+0x2a>
      p->state = RUNNABLE;
    8020268a:	0154ac23          	sw	s5,24(s1)
    8020268e:	bfd1                	j	80202662 <wakeup+0x2a>
}
    80202690:	70e2                	ld	ra,56(sp)
    80202692:	7442                	ld	s0,48(sp)
    80202694:	74a2                	ld	s1,40(sp)
    80202696:	7902                	ld	s2,32(sp)
    80202698:	69e2                	ld	s3,24(sp)
    8020269a:	6a42                	ld	s4,16(sp)
    8020269c:	6aa2                	ld	s5,8(sp)
    8020269e:	6121                	addi	sp,sp,64
    802026a0:	8082                	ret

00000000802026a2 <kill>:
// Kill the process with the given pid.
// The victim won't exit until it tries to return
// to user space (see usertrap() in trap.c).
int
kill(int pid)
{
    802026a2:	7179                	addi	sp,sp,-48
    802026a4:	f406                	sd	ra,40(sp)
    802026a6:	f022                	sd	s0,32(sp)
    802026a8:	ec26                	sd	s1,24(sp)
    802026aa:	e84a                	sd	s2,16(sp)
    802026ac:	e44e                	sd	s3,8(sp)
    802026ae:	1800                	addi	s0,sp,48
    802026b0:	892a                	mv	s2,a0
  struct proc *p;

  for(p = proc; p < &proc[NPROC]; p++){
    802026b2:	0003a497          	auipc	s1,0x3a
    802026b6:	ace48493          	addi	s1,s1,-1330 # 8023c180 <proc>
    802026ba:	00047997          	auipc	s3,0x47
    802026be:	71698993          	addi	s3,s3,1814 # 80249dd0 <bcache>
    acquire(&p->lock);
    802026c2:	8526                	mv	a0,s1
    802026c4:	ffffe097          	auipc	ra,0xffffe
    802026c8:	030080e7          	jalr	48(ra) # 802006f4 <acquire>
    if(p->pid == pid){
    802026cc:	5c9c                	lw	a5,56(s1)
    802026ce:	01278d63          	beq	a5,s2,802026e8 <kill+0x46>
        p->state = RUNNABLE;
      }
      release(&p->lock);
      return 0;
    }
    release(&p->lock);
    802026d2:	8526                	mv	a0,s1
    802026d4:	ffffe097          	auipc	ra,0xffffe
    802026d8:	074080e7          	jalr	116(ra) # 80200748 <release>
  for(p = proc; p < &proc[NPROC]; p++){
    802026dc:	46848493          	addi	s1,s1,1128
    802026e0:	ff3491e3          	bne	s1,s3,802026c2 <kill+0x20>
  }
  return -1;
    802026e4:	557d                	li	a0,-1
    802026e6:	a821                	j	802026fe <kill+0x5c>
      p->killed = 1;
    802026e8:	4785                	li	a5,1
    802026ea:	d89c                	sw	a5,48(s1)
      if(p->state == SLEEPING){
    802026ec:	4c98                	lw	a4,24(s1)
    802026ee:	00f70f63          	beq	a4,a5,8020270c <kill+0x6a>
      release(&p->lock);
    802026f2:	8526                	mv	a0,s1
    802026f4:	ffffe097          	auipc	ra,0xffffe
    802026f8:	054080e7          	jalr	84(ra) # 80200748 <release>
      return 0;
    802026fc:	4501                	li	a0,0
}
    802026fe:	70a2                	ld	ra,40(sp)
    80202700:	7402                	ld	s0,32(sp)
    80202702:	64e2                	ld	s1,24(sp)
    80202704:	6942                	ld	s2,16(sp)
    80202706:	69a2                	ld	s3,8(sp)
    80202708:	6145                	addi	sp,sp,48
    8020270a:	8082                	ret
        p->state = RUNNABLE;
    8020270c:	4789                	li	a5,2
    8020270e:	cc9c                	sw	a5,24(s1)
    80202710:	b7cd                	j	802026f2 <kill+0x50>

0000000080202712 <either_copyout>:
// Copy to either a user address, or kernel address,
// depending on usr_dst.
// Returns 0 on success, -1 on error.
int
either_copyout(int user_dst, uint64 dst, void *src, uint64 len)
{
    80202712:	1101                	addi	sp,sp,-32
    80202714:	ec06                	sd	ra,24(sp)
    80202716:	e822                	sd	s0,16(sp)
    80202718:	e426                	sd	s1,8(sp)
    8020271a:	1000                	addi	s0,sp,32
    8020271c:	84aa                	mv	s1,a0
    8020271e:	852e                	mv	a0,a1
    80202720:	85b2                	mv	a1,a2
    80202722:	8636                	mv	a2,a3
  // struct proc *p = myproc();
  if(user_dst){
    80202724:	c891                	beqz	s1,80202738 <either_copyout+0x26>
    // return copyout(p->pagetable, dst, src, len);
    return copyout2(dst, src, len);
    80202726:	fffff097          	auipc	ra,0xfffff
    8020272a:	cd8080e7          	jalr	-808(ra) # 802013fe <copyout2>
  } else {
    memmove((char *)dst, src, len);
    return 0;
  }
}
    8020272e:	60e2                	ld	ra,24(sp)
    80202730:	6442                	ld	s0,16(sp)
    80202732:	64a2                	ld	s1,8(sp)
    80202734:	6105                	addi	sp,sp,32
    80202736:	8082                	ret
    memmove((char *)dst, src, len);
    80202738:	0006861b          	sext.w	a2,a3
    8020273c:	ffffe097          	auipc	ra,0xffffe
    80202740:	0b0080e7          	jalr	176(ra) # 802007ec <memmove>
    return 0;
    80202744:	8526                	mv	a0,s1
    80202746:	b7e5                	j	8020272e <either_copyout+0x1c>

0000000080202748 <either_copyin>:
// Copy from either a user address, or kernel address,
// depending on usr_src.
// Returns 0 on success, -1 on error.
int
either_copyin(void *dst, int user_src, uint64 src, uint64 len)
{
    80202748:	1101                	addi	sp,sp,-32
    8020274a:	ec06                	sd	ra,24(sp)
    8020274c:	e822                	sd	s0,16(sp)
    8020274e:	e426                	sd	s1,8(sp)
    80202750:	1000                	addi	s0,sp,32
    80202752:	84ae                	mv	s1,a1
    80202754:	85b2                	mv	a1,a2
    80202756:	8636                	mv	a2,a3
  // struct proc *p = myproc();
  if(user_src){
    80202758:	c891                	beqz	s1,8020276c <either_copyin+0x24>
    // return copyin(p->pagetable, dst, src, len);
    return copyin2(dst, src, len);
    8020275a:	fffff097          	auipc	ra,0xfffff
    8020275e:	d84080e7          	jalr	-636(ra) # 802014de <copyin2>
  } else {
    memmove(dst, (char*)src, len);
    return 0;
  }
}
    80202762:	60e2                	ld	ra,24(sp)
    80202764:	6442                	ld	s0,16(sp)
    80202766:	64a2                	ld	s1,8(sp)
    80202768:	6105                	addi	sp,sp,32
    8020276a:	8082                	ret
    memmove(dst, (char*)src, len);
    8020276c:	0006861b          	sext.w	a2,a3
    80202770:	ffffe097          	auipc	ra,0xffffe
    80202774:	07c080e7          	jalr	124(ra) # 802007ec <memmove>
    return 0;
    80202778:	8526                	mv	a0,s1
    8020277a:	b7e5                	j	80202762 <either_copyin+0x1a>

000000008020277c <procdump>:
// Print a process listing to console.  For debugging.
// Runs when user types ^P on console.
// No lock to avoid wedging a stuck machine further.
void
procdump(void)
{
    8020277c:	715d                	addi	sp,sp,-80
    8020277e:	e486                	sd	ra,72(sp)
    80202780:	e0a2                	sd	s0,64(sp)
    80202782:	fc26                	sd	s1,56(sp)
    80202784:	f84a                	sd	s2,48(sp)
    80202786:	f44e                	sd	s3,40(sp)
    80202788:	f052                	sd	s4,32(sp)
    8020278a:	ec56                	sd	s5,24(sp)
    8020278c:	e85a                	sd	s6,16(sp)
    8020278e:	e45e                	sd	s7,8(sp)
    80202790:	0880                	addi	s0,sp,80
  [ZOMBIE]    "zombie"
  };
  struct proc *p;
  char *state;

  printf("\nPID\tSTATE\tNAME\tMEM\n");
    80202792:	00007517          	auipc	a0,0x7
    80202796:	fae50513          	addi	a0,a0,-82 # 80209740 <digits+0x3c0>
    8020279a:	ffffe097          	auipc	ra,0xffffe
    8020279e:	9f4080e7          	jalr	-1548(ra) # 8020018e <printf>
  for(p = proc; p < &proc[NPROC]; p++){
    802027a2:	0003a497          	auipc	s1,0x3a
    802027a6:	e2e48493          	addi	s1,s1,-466 # 8023c5d0 <proc+0x450>
    802027aa:	00048917          	auipc	s2,0x48
    802027ae:	a7690913          	addi	s2,s2,-1418 # 8024a220 <bcache+0x450>
    if(p->state == UNUSED)
      continue;
    if(p->state >= 0 && p->state < NELEM(states) && states[p->state])
    802027b2:	4b11                	li	s6,4
      state = states[p->state];
    else
      state = "???";
    802027b4:	00007997          	auipc	s3,0x7
    802027b8:	f8498993          	addi	s3,s3,-124 # 80209738 <digits+0x3b8>
    printf("%d\t%s\t%s\t%d", p->pid, state, p->name, p->sz);
    802027bc:	00007a97          	auipc	s5,0x7
    802027c0:	f9ca8a93          	addi	s5,s5,-100 # 80209758 <digits+0x3d8>
    printf("\n");
    802027c4:	00007a17          	auipc	s4,0x7
    802027c8:	914a0a13          	addi	s4,s4,-1772 # 802090d8 <etext+0xd8>
    if(p->state >= 0 && p->state < NELEM(states) && states[p->state])
    802027cc:	00009b97          	auipc	s7,0x9
    802027d0:	45cb8b93          	addi	s7,s7,1116 # 8020bc28 <states.0>
    802027d4:	a01d                	j	802027fa <procdump+0x7e>
    printf("%d\t%s\t%s\t%d", p->pid, state, p->name, p->sz);
    802027d6:	bf86b703          	ld	a4,-1032(a3)
    802027da:	be86a583          	lw	a1,-1048(a3)
    802027de:	8556                	mv	a0,s5
    802027e0:	ffffe097          	auipc	ra,0xffffe
    802027e4:	9ae080e7          	jalr	-1618(ra) # 8020018e <printf>
    printf("\n");
    802027e8:	8552                	mv	a0,s4
    802027ea:	ffffe097          	auipc	ra,0xffffe
    802027ee:	9a4080e7          	jalr	-1628(ra) # 8020018e <printf>
  for(p = proc; p < &proc[NPROC]; p++){
    802027f2:	46848493          	addi	s1,s1,1128
    802027f6:	03248263          	beq	s1,s2,8020281a <procdump+0x9e>
    if(p->state == UNUSED)
    802027fa:	86a6                	mv	a3,s1
    802027fc:	bc84a783          	lw	a5,-1080(s1)
    80202800:	dbed                	beqz	a5,802027f2 <procdump+0x76>
      state = "???";
    80202802:	864e                	mv	a2,s3
    if(p->state >= 0 && p->state < NELEM(states) && states[p->state])
    80202804:	fcfb69e3          	bltu	s6,a5,802027d6 <procdump+0x5a>
    80202808:	02079713          	slli	a4,a5,0x20
    8020280c:	01d75793          	srli	a5,a4,0x1d
    80202810:	97de                	add	a5,a5,s7
    80202812:	6390                	ld	a2,0(a5)
    80202814:	f269                	bnez	a2,802027d6 <procdump+0x5a>
      state = "???";
    80202816:	864e                	mv	a2,s3
    80202818:	bf7d                	j	802027d6 <procdump+0x5a>
  }
}
    8020281a:	60a6                	ld	ra,72(sp)
    8020281c:	6406                	ld	s0,64(sp)
    8020281e:	74e2                	ld	s1,56(sp)
    80202820:	7942                	ld	s2,48(sp)
    80202822:	79a2                	ld	s3,40(sp)
    80202824:	7a02                	ld	s4,32(sp)
    80202826:	6ae2                	ld	s5,24(sp)
    80202828:	6b42                	ld	s6,16(sp)
    8020282a:	6ba2                	ld	s7,8(sp)
    8020282c:	6161                	addi	sp,sp,80
    8020282e:	8082                	ret

0000000080202830 <procnum>:

uint64
procnum(void)
{
    80202830:	1141                	addi	sp,sp,-16
    80202832:	e422                	sd	s0,8(sp)
    80202834:	0800                	addi	s0,sp,16
  int num = 0;
  struct proc *p;

  for (p = proc; p < &proc[NPROC]; p++) {
    80202836:	0003a797          	auipc	a5,0x3a
    8020283a:	94a78793          	addi	a5,a5,-1718 # 8023c180 <proc>
  int num = 0;
    8020283e:	4501                	li	a0,0
  for (p = proc; p < &proc[NPROC]; p++) {
    80202840:	00047697          	auipc	a3,0x47
    80202844:	59068693          	addi	a3,a3,1424 # 80249dd0 <bcache>
    80202848:	a029                	j	80202852 <procnum+0x22>
    8020284a:	46878793          	addi	a5,a5,1128
    8020284e:	00d78663          	beq	a5,a3,8020285a <procnum+0x2a>
    if (p->state != UNUSED) {
    80202852:	4f98                	lw	a4,24(a5)
    80202854:	db7d                	beqz	a4,8020284a <procnum+0x1a>
      num++;
    80202856:	2505                	addiw	a0,a0,1
    80202858:	bfcd                	j	8020284a <procnum+0x1a>
    }
  }

  return num;
}
    8020285a:	6422                	ld	s0,8(sp)
    8020285c:	0141                	addi	sp,sp,16
    8020285e:	8082                	ret

0000000080202860 <swtch>:
    80202860:	00153023          	sd	ra,0(a0)
    80202864:	00253423          	sd	sp,8(a0)
    80202868:	e900                	sd	s0,16(a0)
    8020286a:	ed04                	sd	s1,24(a0)
    8020286c:	03253023          	sd	s2,32(a0)
    80202870:	03353423          	sd	s3,40(a0)
    80202874:	03453823          	sd	s4,48(a0)
    80202878:	03553c23          	sd	s5,56(a0)
    8020287c:	05653023          	sd	s6,64(a0)
    80202880:	05753423          	sd	s7,72(a0)
    80202884:	05853823          	sd	s8,80(a0)
    80202888:	05953c23          	sd	s9,88(a0)
    8020288c:	07a53023          	sd	s10,96(a0)
    80202890:	07b53423          	sd	s11,104(a0)
    80202894:	0005b083          	ld	ra,0(a1)
    80202898:	0085b103          	ld	sp,8(a1)
    8020289c:	6980                	ld	s0,16(a1)
    8020289e:	6d84                	ld	s1,24(a1)
    802028a0:	0205b903          	ld	s2,32(a1)
    802028a4:	0285b983          	ld	s3,40(a1)
    802028a8:	0305ba03          	ld	s4,48(a1)
    802028ac:	0385ba83          	ld	s5,56(a1)
    802028b0:	0405bb03          	ld	s6,64(a1)
    802028b4:	0485bb83          	ld	s7,72(a1)
    802028b8:	0505bc03          	ld	s8,80(a1)
    802028bc:	0585bc83          	ld	s9,88(a1)
    802028c0:	0605bd03          	ld	s10,96(a1)
    802028c4:	0685bd83          	ld	s11,104(a1)
    802028c8:	8082                	ret

00000000802028ca <trapinithart>:
// }

// set up to take exceptions and traps while in the kernel.
void
trapinithart(void)
{
    802028ca:	1141                	addi	sp,sp,-16
    802028cc:	e406                	sd	ra,8(sp)
    802028ce:	e022                	sd	s0,0(sp)
    802028d0:	0800                	addi	s0,sp,16
  asm volatile("csrw stvec, %0" : : "r" (x));
    802028d2:	00031797          	auipc	a5,0x31
    802028d6:	a1e7b783          	ld	a5,-1506(a5) # 802332f0 <_GLOBAL_OFFSET_TABLE_+0x18>
    802028da:	10579073          	csrw	stvec,a5
  asm volatile("csrr %0, sstatus" : "=r" (x) );
    802028de:	100027f3          	csrr	a5,sstatus
  w_stvec((uint64)kernelvec);
  w_sstatus(r_sstatus() | SSTATUS_SIE);
    802028e2:	0027e793          	ori	a5,a5,2
  asm volatile("csrw sstatus, %0" : : "r" (x));
    802028e6:	10079073          	csrw	sstatus,a5
  asm volatile("csrr %0, sie" : "=r" (x) );
    802028ea:	104027f3          	csrr	a5,sie
  // enable supervisor-mode timer interrupts.
  w_sie(r_sie() | SIE_SEIE | SIE_SSIE | SIE_STIE);
    802028ee:	2227e793          	ori	a5,a5,546
  asm volatile("csrw sie, %0" : : "r" (x));
    802028f2:	10479073          	csrw	sie,a5
  set_next_timeout();
    802028f6:	00003097          	auipc	ra,0x3
    802028fa:	0c0080e7          	jalr	192(ra) # 802059b6 <set_next_timeout>
  #ifdef DEBUG
  printf("trapinithart\n");
    802028fe:	00007517          	auipc	a0,0x7
    80202902:	e9250513          	addi	a0,a0,-366 # 80209790 <digits+0x410>
    80202906:	ffffe097          	auipc	ra,0xffffe
    8020290a:	888080e7          	jalr	-1912(ra) # 8020018e <printf>
  #endif
}
    8020290e:	60a2                	ld	ra,8(sp)
    80202910:	6402                	ld	s0,0(sp)
    80202912:	0141                	addi	sp,sp,16
    80202914:	8082                	ret

0000000080202916 <usertrapret>:
//
// return to user space
//
void
usertrapret(void)
{
    80202916:	1141                	addi	sp,sp,-16
    80202918:	e406                	sd	ra,8(sp)
    8020291a:	e022                	sd	s0,0(sp)
    8020291c:	0800                	addi	s0,sp,16
  struct proc *p = myproc();
    8020291e:	fffff097          	auipc	ra,0xfffff
    80202922:	1ba080e7          	jalr	442(ra) # 80201ad8 <myproc>
  asm volatile("csrr %0, sstatus" : "=r" (x) );
    80202926:	100027f3          	csrr	a5,sstatus
  w_sstatus(r_sstatus() & ~SSTATUS_SIE);
    8020292a:	9bf5                	andi	a5,a5,-3
  asm volatile("csrw sstatus, %0" : : "r" (x));
    8020292c:	10079073          	csrw	sstatus,a5
  // kerneltrap() to usertrap(), so turn off interrupts until
  // we're back in user space, where usertrap() is correct.
  intr_off();

  // send syscalls, interrupts, and exceptions to trampoline.S
  w_stvec(TRAMPOLINE + (uservec - trampoline));
    80202930:	00031697          	auipc	a3,0x31
    80202934:	9b06b683          	ld	a3,-1616(a3) # 802332e0 <_GLOBAL_OFFSET_TABLE_+0x8>
    80202938:	00031717          	auipc	a4,0x31
    8020293c:	9d873703          	ld	a4,-1576(a4) # 80233310 <_GLOBAL_OFFSET_TABLE_+0x38>
    80202940:	8f15                	sub	a4,a4,a3
    80202942:	040007b7          	lui	a5,0x4000
    80202946:	17fd                	addi	a5,a5,-1 # 3ffffff <_entry-0x7c200001>
    80202948:	07b2                	slli	a5,a5,0xc
    8020294a:	973e                	add	a4,a4,a5
  asm volatile("csrw stvec, %0" : : "r" (x));
    8020294c:	10571073          	csrw	stvec,a4

  // set up trapframe values that uservec will need when
  // the process next re-enters the kernel.
  p->trapframe->kernel_satp = r_satp();         // kernel page table
    80202950:	7138                	ld	a4,96(a0)
  asm volatile("csrr %0, satp" : "=r" (x) );
    80202952:	18002673          	csrr	a2,satp
    80202956:	e310                	sd	a2,0(a4)
  p->trapframe->kernel_sp = p->kstack + PGSIZE; // process's kernel stack
    80202958:	7130                	ld	a2,96(a0)
    8020295a:	6138                	ld	a4,64(a0)
    8020295c:	6585                	lui	a1,0x1
    8020295e:	972e                	add	a4,a4,a1
    80202960:	e618                	sd	a4,8(a2)
  p->trapframe->kernel_trap = (uint64)usertrap;
    80202962:	7138                	ld	a4,96(a0)
    80202964:	00000617          	auipc	a2,0x0
    80202968:	0f460613          	addi	a2,a2,244 # 80202a58 <usertrap>
    8020296c:	eb10                	sd	a2,16(a4)
  p->trapframe->kernel_hartid = r_tp();         // hartid for cpuid()
    8020296e:	7138                	ld	a4,96(a0)
  asm volatile("mv %0, tp" : "=r" (x) );
    80202970:	8612                	mv	a2,tp
    80202972:	f310                	sd	a2,32(a4)
  asm volatile("csrr %0, sstatus" : "=r" (x) );
    80202974:	10002773          	csrr	a4,sstatus
  // set up the registers that trampoline.S's sret will use
  // to get to user space.
  
  // set S Previous Privilege mode to User.
  unsigned long x = r_sstatus();
  x &= ~SSTATUS_SPP; // clear SPP to 0 for user mode
    80202978:	eff77713          	andi	a4,a4,-257
  x |= SSTATUS_SPIE; // enable interrupts in user mode
    8020297c:	02076713          	ori	a4,a4,32
  asm volatile("csrw sstatus, %0" : : "r" (x));
    80202980:	10071073          	csrw	sstatus,a4
  w_sstatus(x);

  // set S Exception Program Counter to the saved user pc.
  w_sepc(p->trapframe->epc);
    80202984:	7138                	ld	a4,96(a0)
  asm volatile("csrw sepc, %0" : : "r" (x));
    80202986:	6f18                	ld	a4,24(a4)
    80202988:	14171073          	csrw	sepc,a4

  // tell trampoline.S the user page table to switch to.
  // printf("[usertrapret]p->pagetable: %p\n", p->pagetable);
  uint64 satp = MAKE_SATP(p->pagetable);
    8020298c:	692c                	ld	a1,80(a0)
    8020298e:	81b1                	srli	a1,a1,0xc

  // jump to trampoline.S at the top of memory, which 
  // switches to the user page table, restores user registers,
  // and switches to user mode with sret.
  uint64 fn = TRAMPOLINE + (userret - trampoline);
    80202990:	00031717          	auipc	a4,0x31
    80202994:	95873703          	ld	a4,-1704(a4) # 802332e8 <_GLOBAL_OFFSET_TABLE_+0x10>
    80202998:	8f15                	sub	a4,a4,a3
    8020299a:	97ba                	add	a5,a5,a4
  ((void (*)(uint64,uint64))fn)(TRAPFRAME, satp);
    8020299c:	577d                	li	a4,-1
    8020299e:	177e                	slli	a4,a4,0x3f
    802029a0:	8dd9                	or	a1,a1,a4
    802029a2:	02000537          	lui	a0,0x2000
    802029a6:	157d                	addi	a0,a0,-1 # 1ffffff <_entry-0x7e200001>
    802029a8:	0536                	slli	a0,a0,0xd
    802029aa:	9782                	jalr	a5
}
    802029ac:	60a2                	ld	ra,8(sp)
    802029ae:	6402                	ld	s0,0(sp)
    802029b0:	0141                	addi	sp,sp,16
    802029b2:	8082                	ret

00000000802029b4 <devintr>:
// Check if it's an external/software interrupt, 
// and handle it. 
// returns  2 if timer interrupt, 
//          1 if other device, 
//          0 if not recognized. 
int devintr(void) {
    802029b4:	1101                	addi	sp,sp,-32
    802029b6:	ec06                	sd	ra,24(sp)
    802029b8:	e822                	sd	s0,16(sp)
    802029ba:	e426                	sd	s1,8(sp)
    802029bc:	1000                	addi	s0,sp,32
  asm volatile("csrr %0, scause" : "=r" (x) );
    802029be:	14202773          	csrr	a4,scause
	uint64 scause = r_scause();

	#ifdef QEMU 
	// handle external interrupt 
	if ((0x8000000000000000L & scause) && 9 == (scause & 0xff)) 
    802029c2:	00074d63          	bltz	a4,802029dc <devintr+0x28>
		sbi_set_mie();
		#endif 

		return 1;
	}
	else if (0x8000000000000005L == scause) {
    802029c6:	57fd                	li	a5,-1
    802029c8:	17fe                	slli	a5,a5,0x3f
    802029ca:	0795                	addi	a5,a5,5
		timer_tick();
		return 2;
	}
	else { return 0;}
    802029cc:	4501                	li	a0,0
	else if (0x8000000000000005L == scause) {
    802029ce:	06f70f63          	beq	a4,a5,80202a4c <devintr+0x98>
}
    802029d2:	60e2                	ld	ra,24(sp)
    802029d4:	6442                	ld	s0,16(sp)
    802029d6:	64a2                	ld	s1,8(sp)
    802029d8:	6105                	addi	sp,sp,32
    802029da:	8082                	ret
	if ((0x8000000000000000L & scause) && 9 == (scause & 0xff)) 
    802029dc:	0ff77793          	zext.b	a5,a4
    802029e0:	46a5                	li	a3,9
    802029e2:	fed792e3          	bne	a5,a3,802029c6 <devintr+0x12>
		int irq = plic_claim();
    802029e6:	00005097          	auipc	ra,0x5
    802029ea:	ad8080e7          	jalr	-1320(ra) # 802074be <plic_claim>
    802029ee:	84aa                	mv	s1,a0
		if (UART_IRQ == irq) {
    802029f0:	47a9                	li	a5,10
    802029f2:	02f50163          	beq	a0,a5,80202a14 <devintr+0x60>
		else if (DISK_IRQ == irq) {
    802029f6:	4785                	li	a5,1
    802029f8:	04f50563          	beq	a0,a5,80202a42 <devintr+0x8e>
		return 1;
    802029fc:	4505                	li	a0,1
		else if (irq) {
    802029fe:	d8f1                	beqz	s1,802029d2 <devintr+0x1e>
			printf("unexpected interrupt irq = %d\n", irq);
    80202a00:	85a6                	mv	a1,s1
    80202a02:	00007517          	auipc	a0,0x7
    80202a06:	d9e50513          	addi	a0,a0,-610 # 802097a0 <digits+0x420>
    80202a0a:	ffffd097          	auipc	ra,0xffffd
    80202a0e:	784080e7          	jalr	1924(ra) # 8020018e <printf>
    80202a12:	a821                	j	80202a2a <devintr+0x76>
	return SBI_CALL_0(SBI_CONSOLE_GETCHAR);
    80202a14:	4501                	li	a0,0
    80202a16:	4581                	li	a1,0
    80202a18:	4601                	li	a2,0
    80202a1a:	4681                	li	a3,0
    80202a1c:	4889                	li	a7,2
    80202a1e:	00000073          	ecall
    80202a22:	2501                	sext.w	a0,a0
			if (-1 != c) {
    80202a24:	57fd                	li	a5,-1
    80202a26:	00f51963          	bne	a0,a5,80202a38 <devintr+0x84>
		if (irq) { plic_complete(irq);}
    80202a2a:	8526                	mv	a0,s1
    80202a2c:	00005097          	auipc	ra,0x5
    80202a30:	abc080e7          	jalr	-1348(ra) # 802074e8 <plic_complete>
		return 1;
    80202a34:	4505                	li	a0,1
    80202a36:	bf71                	j	802029d2 <devintr+0x1e>
				consoleintr(c);
    80202a38:	00005097          	auipc	ra,0x5
    80202a3c:	cc4080e7          	jalr	-828(ra) # 802076fc <consoleintr>
    80202a40:	b7ed                	j	80202a2a <devintr+0x76>
			disk_intr();
    80202a42:	00003097          	auipc	ra,0x3
    80202a46:	032080e7          	jalr	50(ra) # 80205a74 <disk_intr>
    80202a4a:	b7c5                	j	80202a2a <devintr+0x76>
		timer_tick();
    80202a4c:	00003097          	auipc	ra,0x3
    80202a50:	f8e080e7          	jalr	-114(ra) # 802059da <timer_tick>
		return 2;
    80202a54:	4509                	li	a0,2
    80202a56:	bfb5                	j	802029d2 <devintr+0x1e>

0000000080202a58 <usertrap>:
{
    80202a58:	1101                	addi	sp,sp,-32
    80202a5a:	ec06                	sd	ra,24(sp)
    80202a5c:	e822                	sd	s0,16(sp)
    80202a5e:	e426                	sd	s1,8(sp)
    80202a60:	e04a                	sd	s2,0(sp)
    80202a62:	1000                	addi	s0,sp,32
  asm volatile("csrr %0, sstatus" : "=r" (x) );
    80202a64:	100027f3          	csrr	a5,sstatus
  if((r_sstatus() & SSTATUS_SPP) != 0)
    80202a68:	1007f793          	andi	a5,a5,256
    80202a6c:	e3ad                	bnez	a5,80202ace <usertrap+0x76>
  asm volatile("csrw stvec, %0" : : "r" (x));
    80202a6e:	00031797          	auipc	a5,0x31
    80202a72:	8827b783          	ld	a5,-1918(a5) # 802332f0 <_GLOBAL_OFFSET_TABLE_+0x18>
    80202a76:	10579073          	csrw	stvec,a5
  struct proc *p = myproc();
    80202a7a:	fffff097          	auipc	ra,0xfffff
    80202a7e:	05e080e7          	jalr	94(ra) # 80201ad8 <myproc>
    80202a82:	84aa                	mv	s1,a0
  p->trapframe->epc = r_sepc();
    80202a84:	713c                	ld	a5,96(a0)
  asm volatile("csrr %0, sepc" : "=r" (x) );
    80202a86:	14102773          	csrr	a4,sepc
    80202a8a:	ef98                	sd	a4,24(a5)
  asm volatile("csrr %0, scause" : "=r" (x) );
    80202a8c:	14202773          	csrr	a4,scause
  if(r_scause() == 8){
    80202a90:	47a1                	li	a5,8
    80202a92:	04f71c63          	bne	a4,a5,80202aea <usertrap+0x92>
    if(p->killed)
    80202a96:	591c                	lw	a5,48(a0)
    80202a98:	e3b9                	bnez	a5,80202ade <usertrap+0x86>
    p->trapframe->epc += 4;
    80202a9a:	70b8                	ld	a4,96(s1)
    80202a9c:	6f1c                	ld	a5,24(a4)
    80202a9e:	0791                	addi	a5,a5,4
    80202aa0:	ef1c                	sd	a5,24(a4)
  asm volatile("csrr %0, sstatus" : "=r" (x) );
    80202aa2:	100027f3          	csrr	a5,sstatus
  w_sstatus(r_sstatus() | SSTATUS_SIE);
    80202aa6:	0027e793          	ori	a5,a5,2
  asm volatile("csrw sstatus, %0" : : "r" (x));
    80202aaa:	10079073          	csrw	sstatus,a5
    syscall();
    80202aae:	00000097          	auipc	ra,0x0
    80202ab2:	6fc080e7          	jalr	1788(ra) # 802031aa <syscall>
  if(p->killed)
    80202ab6:	589c                	lw	a5,48(s1)
    80202ab8:	ebd1                	bnez	a5,80202b4c <usertrap+0xf4>
  usertrapret();
    80202aba:	00000097          	auipc	ra,0x0
    80202abe:	e5c080e7          	jalr	-420(ra) # 80202916 <usertrapret>
}
    80202ac2:	60e2                	ld	ra,24(sp)
    80202ac4:	6442                	ld	s0,16(sp)
    80202ac6:	64a2                	ld	s1,8(sp)
    80202ac8:	6902                	ld	s2,0(sp)
    80202aca:	6105                	addi	sp,sp,32
    80202acc:	8082                	ret
    panic("usertrap: not from user mode");
    80202ace:	00007517          	auipc	a0,0x7
    80202ad2:	cf250513          	addi	a0,a0,-782 # 802097c0 <digits+0x440>
    80202ad6:	ffffd097          	auipc	ra,0xffffd
    80202ada:	66e080e7          	jalr	1646(ra) # 80200144 <panic>
      exit(-1);
    80202ade:	557d                	li	a0,-1
    80202ae0:	00000097          	auipc	ra,0x0
    80202ae4:	884080e7          	jalr	-1916(ra) # 80202364 <exit>
    80202ae8:	bf4d                	j	80202a9a <usertrap+0x42>
  else if((which_dev = devintr()) != 0){
    80202aea:	00000097          	auipc	ra,0x0
    80202aee:	eca080e7          	jalr	-310(ra) # 802029b4 <devintr>
    80202af2:	892a                	mv	s2,a0
    80202af4:	c501                	beqz	a0,80202afc <usertrap+0xa4>
  if(p->killed)
    80202af6:	589c                	lw	a5,48(s1)
    80202af8:	c3b1                	beqz	a5,80202b3c <usertrap+0xe4>
    80202afa:	a825                	j	80202b32 <usertrap+0xda>
  asm volatile("csrr %0, scause" : "=r" (x) );
    80202afc:	142025f3          	csrr	a1,scause
    printf("\nusertrap(): unexpected scause %p pid=%d %s\n", r_scause(), p->pid, p->name);
    80202b00:	45048693          	addi	a3,s1,1104
    80202b04:	5c90                	lw	a2,56(s1)
    80202b06:	00007517          	auipc	a0,0x7
    80202b0a:	cda50513          	addi	a0,a0,-806 # 802097e0 <digits+0x460>
    80202b0e:	ffffd097          	auipc	ra,0xffffd
    80202b12:	680080e7          	jalr	1664(ra) # 8020018e <printf>
  asm volatile("csrr %0, sepc" : "=r" (x) );
    80202b16:	141025f3          	csrr	a1,sepc
  asm volatile("csrr %0, stval" : "=r" (x) );
    80202b1a:	14302673          	csrr	a2,stval
    printf("            sepc=%p stval=%p\n", r_sepc(), r_stval());
    80202b1e:	00007517          	auipc	a0,0x7
    80202b22:	cf250513          	addi	a0,a0,-782 # 80209810 <digits+0x490>
    80202b26:	ffffd097          	auipc	ra,0xffffd
    80202b2a:	668080e7          	jalr	1640(ra) # 8020018e <printf>
    p->killed = 1;
    80202b2e:	4785                	li	a5,1
    80202b30:	d89c                	sw	a5,48(s1)
    exit(-1);
    80202b32:	557d                	li	a0,-1
    80202b34:	00000097          	auipc	ra,0x0
    80202b38:	830080e7          	jalr	-2000(ra) # 80202364 <exit>
  if(which_dev == 2)
    80202b3c:	4789                	li	a5,2
    80202b3e:	f6f91ee3          	bne	s2,a5,80202aba <usertrap+0x62>
    yield();
    80202b42:	00000097          	auipc	ra,0x0
    80202b46:	922080e7          	jalr	-1758(ra) # 80202464 <yield>
    80202b4a:	bf85                	j	80202aba <usertrap+0x62>
  int which_dev = 0;
    80202b4c:	4901                	li	s2,0
    80202b4e:	b7d5                	j	80202b32 <usertrap+0xda>

0000000080202b50 <kerneltrap>:
kerneltrap() {
    80202b50:	7179                	addi	sp,sp,-48
    80202b52:	f406                	sd	ra,40(sp)
    80202b54:	f022                	sd	s0,32(sp)
    80202b56:	ec26                	sd	s1,24(sp)
    80202b58:	e84a                	sd	s2,16(sp)
    80202b5a:	e44e                	sd	s3,8(sp)
    80202b5c:	1800                	addi	s0,sp,48
  asm volatile("csrr %0, sepc" : "=r" (x) );
    80202b5e:	14102973          	csrr	s2,sepc
  asm volatile("csrr %0, sstatus" : "=r" (x) );
    80202b62:	100024f3          	csrr	s1,sstatus
  asm volatile("csrr %0, scause" : "=r" (x) );
    80202b66:	142029f3          	csrr	s3,scause
  if((sstatus & SSTATUS_SPP) == 0)
    80202b6a:	1004f793          	andi	a5,s1,256
    80202b6e:	cb85                	beqz	a5,80202b9e <kerneltrap+0x4e>
  asm volatile("csrr %0, sstatus" : "=r" (x) );
    80202b70:	100027f3          	csrr	a5,sstatus
  return (x & SSTATUS_SIE) != 0;
    80202b74:	8b89                	andi	a5,a5,2
  if(intr_get() != 0)
    80202b76:	ef85                	bnez	a5,80202bae <kerneltrap+0x5e>
  if((which_dev = devintr()) == 0){
    80202b78:	00000097          	auipc	ra,0x0
    80202b7c:	e3c080e7          	jalr	-452(ra) # 802029b4 <devintr>
    80202b80:	cd1d                	beqz	a0,80202bbe <kerneltrap+0x6e>
  if(which_dev == 2 && myproc() != 0 && myproc()->state == RUNNING) {
    80202b82:	4789                	li	a5,2
    80202b84:	08f50b63          	beq	a0,a5,80202c1a <kerneltrap+0xca>
  asm volatile("csrw sepc, %0" : : "r" (x));
    80202b88:	14191073          	csrw	sepc,s2
  asm volatile("csrw sstatus, %0" : : "r" (x));
    80202b8c:	10049073          	csrw	sstatus,s1
}
    80202b90:	70a2                	ld	ra,40(sp)
    80202b92:	7402                	ld	s0,32(sp)
    80202b94:	64e2                	ld	s1,24(sp)
    80202b96:	6942                	ld	s2,16(sp)
    80202b98:	69a2                	ld	s3,8(sp)
    80202b9a:	6145                	addi	sp,sp,48
    80202b9c:	8082                	ret
    panic("kerneltrap: not from supervisor mode");
    80202b9e:	00007517          	auipc	a0,0x7
    80202ba2:	c9250513          	addi	a0,a0,-878 # 80209830 <digits+0x4b0>
