
ctarget:     file format elf64-x86-64


Disassembly of section .init:

0000000000401000 <_init>:
  401000:	f3 0f 1e fa          	endbr64 
  401004:	48 83 ec 08          	sub    $0x8,%rsp
  401008:	48 8b 05 e9 5f 00 00 	mov    0x5fe9(%rip),%rax        # 406ff8 <__gmon_start__>
  40100f:	48 85 c0             	test   %rax,%rax
  401012:	74 02                	je     401016 <_init+0x16>
  401014:	ff d0                	call   *%rax
  401016:	48 83 c4 08          	add    $0x8,%rsp
  40101a:	c3                   	ret    

Disassembly of section .plt:

0000000000401020 <.plt>:
  401020:	ff 35 e2 5f 00 00    	push   0x5fe2(%rip)        # 407008 <_GLOBAL_OFFSET_TABLE_+0x8>
  401026:	f2 ff 25 e3 5f 00 00 	bnd jmp *0x5fe3(%rip)        # 407010 <_GLOBAL_OFFSET_TABLE_+0x10>
  40102d:	0f 1f 00             	nopl   (%rax)
  401030:	f3 0f 1e fa          	endbr64 
  401034:	68 00 00 00 00       	push   $0x0
  401039:	f2 e9 e1 ff ff ff    	bnd jmp 401020 <.plt>
  40103f:	90                   	nop
  401040:	f3 0f 1e fa          	endbr64 
  401044:	68 01 00 00 00       	push   $0x1
  401049:	f2 e9 d1 ff ff ff    	bnd jmp 401020 <.plt>
  40104f:	90                   	nop
  401050:	f3 0f 1e fa          	endbr64 
  401054:	68 02 00 00 00       	push   $0x2
  401059:	f2 e9 c1 ff ff ff    	bnd jmp 401020 <.plt>
  40105f:	90                   	nop
  401060:	f3 0f 1e fa          	endbr64 
  401064:	68 03 00 00 00       	push   $0x3
  401069:	f2 e9 b1 ff ff ff    	bnd jmp 401020 <.plt>
  40106f:	90                   	nop
  401070:	f3 0f 1e fa          	endbr64 
  401074:	68 04 00 00 00       	push   $0x4
  401079:	f2 e9 a1 ff ff ff    	bnd jmp 401020 <.plt>
  40107f:	90                   	nop
  401080:	f3 0f 1e fa          	endbr64 
  401084:	68 05 00 00 00       	push   $0x5
  401089:	f2 e9 91 ff ff ff    	bnd jmp 401020 <.plt>
  40108f:	90                   	nop
  401090:	f3 0f 1e fa          	endbr64 
  401094:	68 06 00 00 00       	push   $0x6
  401099:	f2 e9 81 ff ff ff    	bnd jmp 401020 <.plt>
  40109f:	90                   	nop
  4010a0:	f3 0f 1e fa          	endbr64 
  4010a4:	68 07 00 00 00       	push   $0x7
  4010a9:	f2 e9 71 ff ff ff    	bnd jmp 401020 <.plt>
  4010af:	90                   	nop
  4010b0:	f3 0f 1e fa          	endbr64 
  4010b4:	68 08 00 00 00       	push   $0x8
  4010b9:	f2 e9 61 ff ff ff    	bnd jmp 401020 <.plt>
  4010bf:	90                   	nop
  4010c0:	f3 0f 1e fa          	endbr64 
  4010c4:	68 09 00 00 00       	push   $0x9
  4010c9:	f2 e9 51 ff ff ff    	bnd jmp 401020 <.plt>
  4010cf:	90                   	nop
  4010d0:	f3 0f 1e fa          	endbr64 
  4010d4:	68 0a 00 00 00       	push   $0xa
  4010d9:	f2 e9 41 ff ff ff    	bnd jmp 401020 <.plt>
  4010df:	90                   	nop
  4010e0:	f3 0f 1e fa          	endbr64 
  4010e4:	68 0b 00 00 00       	push   $0xb
  4010e9:	f2 e9 31 ff ff ff    	bnd jmp 401020 <.plt>
  4010ef:	90                   	nop
  4010f0:	f3 0f 1e fa          	endbr64 
  4010f4:	68 0c 00 00 00       	push   $0xc
  4010f9:	f2 e9 21 ff ff ff    	bnd jmp 401020 <.plt>
  4010ff:	90                   	nop
  401100:	f3 0f 1e fa          	endbr64 
  401104:	68 0d 00 00 00       	push   $0xd
  401109:	f2 e9 11 ff ff ff    	bnd jmp 401020 <.plt>
  40110f:	90                   	nop
  401110:	f3 0f 1e fa          	endbr64 
  401114:	68 0e 00 00 00       	push   $0xe
  401119:	f2 e9 01 ff ff ff    	bnd jmp 401020 <.plt>
  40111f:	90                   	nop
  401120:	f3 0f 1e fa          	endbr64 
  401124:	68 0f 00 00 00       	push   $0xf
  401129:	f2 e9 f1 fe ff ff    	bnd jmp 401020 <.plt>
  40112f:	90                   	nop
  401130:	f3 0f 1e fa          	endbr64 
  401134:	68 10 00 00 00       	push   $0x10
  401139:	f2 e9 e1 fe ff ff    	bnd jmp 401020 <.plt>
  40113f:	90                   	nop
  401140:	f3 0f 1e fa          	endbr64 
  401144:	68 11 00 00 00       	push   $0x11
  401149:	f2 e9 d1 fe ff ff    	bnd jmp 401020 <.plt>
  40114f:	90                   	nop
  401150:	f3 0f 1e fa          	endbr64 
  401154:	68 12 00 00 00       	push   $0x12
  401159:	f2 e9 c1 fe ff ff    	bnd jmp 401020 <.plt>
  40115f:	90                   	nop
  401160:	f3 0f 1e fa          	endbr64 
  401164:	68 13 00 00 00       	push   $0x13
  401169:	f2 e9 b1 fe ff ff    	bnd jmp 401020 <.plt>
  40116f:	90                   	nop
  401170:	f3 0f 1e fa          	endbr64 
  401174:	68 14 00 00 00       	push   $0x14
  401179:	f2 e9 a1 fe ff ff    	bnd jmp 401020 <.plt>
  40117f:	90                   	nop
  401180:	f3 0f 1e fa          	endbr64 
  401184:	68 15 00 00 00       	push   $0x15
  401189:	f2 e9 91 fe ff ff    	bnd jmp 401020 <.plt>
  40118f:	90                   	nop
  401190:	f3 0f 1e fa          	endbr64 
  401194:	68 16 00 00 00       	push   $0x16
  401199:	f2 e9 81 fe ff ff    	bnd jmp 401020 <.plt>
  40119f:	90                   	nop
  4011a0:	f3 0f 1e fa          	endbr64 
  4011a4:	68 17 00 00 00       	push   $0x17
  4011a9:	f2 e9 71 fe ff ff    	bnd jmp 401020 <.plt>
  4011af:	90                   	nop
  4011b0:	f3 0f 1e fa          	endbr64 
  4011b4:	68 18 00 00 00       	push   $0x18
  4011b9:	f2 e9 61 fe ff ff    	bnd jmp 401020 <.plt>
  4011bf:	90                   	nop
  4011c0:	f3 0f 1e fa          	endbr64 
  4011c4:	68 19 00 00 00       	push   $0x19
  4011c9:	f2 e9 51 fe ff ff    	bnd jmp 401020 <.plt>
  4011cf:	90                   	nop
  4011d0:	f3 0f 1e fa          	endbr64 
  4011d4:	68 1a 00 00 00       	push   $0x1a
  4011d9:	f2 e9 41 fe ff ff    	bnd jmp 401020 <.plt>
  4011df:	90                   	nop
  4011e0:	f3 0f 1e fa          	endbr64 
  4011e4:	68 1b 00 00 00       	push   $0x1b
  4011e9:	f2 e9 31 fe ff ff    	bnd jmp 401020 <.plt>
  4011ef:	90                   	nop
  4011f0:	f3 0f 1e fa          	endbr64 
  4011f4:	68 1c 00 00 00       	push   $0x1c
  4011f9:	f2 e9 21 fe ff ff    	bnd jmp 401020 <.plt>
  4011ff:	90                   	nop
  401200:	f3 0f 1e fa          	endbr64 
  401204:	68 1d 00 00 00       	push   $0x1d
  401209:	f2 e9 11 fe ff ff    	bnd jmp 401020 <.plt>
  40120f:	90                   	nop
  401210:	f3 0f 1e fa          	endbr64 
  401214:	68 1e 00 00 00       	push   $0x1e
  401219:	f2 e9 01 fe ff ff    	bnd jmp 401020 <.plt>
  40121f:	90                   	nop
  401220:	f3 0f 1e fa          	endbr64 
  401224:	68 1f 00 00 00       	push   $0x1f
  401229:	f2 e9 f1 fd ff ff    	bnd jmp 401020 <.plt>
  40122f:	90                   	nop
  401230:	f3 0f 1e fa          	endbr64 
  401234:	68 20 00 00 00       	push   $0x20
  401239:	f2 e9 e1 fd ff ff    	bnd jmp 401020 <.plt>
  40123f:	90                   	nop
  401240:	f3 0f 1e fa          	endbr64 
  401244:	68 21 00 00 00       	push   $0x21
  401249:	f2 e9 d1 fd ff ff    	bnd jmp 401020 <.plt>
  40124f:	90                   	nop

Disassembly of section .plt.sec:

0000000000401250 <strcasecmp@plt>:
  401250:	f3 0f 1e fa          	endbr64 
  401254:	f2 ff 25 bd 5d 00 00 	bnd jmp *0x5dbd(%rip)        # 407018 <strcasecmp@GLIBC_2.2.5>
  40125b:	0f 1f 44 00 00       	nopl   0x0(%rax,%rax,1)

0000000000401260 <__errno_location@plt>:
  401260:	f3 0f 1e fa          	endbr64 
  401264:	f2 ff 25 b5 5d 00 00 	bnd jmp *0x5db5(%rip)        # 407020 <__errno_location@GLIBC_2.2.5>
  40126b:	0f 1f 44 00 00       	nopl   0x0(%rax,%rax,1)

0000000000401270 <srandom@plt>:
  401270:	f3 0f 1e fa          	endbr64 
  401274:	f2 ff 25 ad 5d 00 00 	bnd jmp *0x5dad(%rip)        # 407028 <srandom@GLIBC_2.2.5>
  40127b:	0f 1f 44 00 00       	nopl   0x0(%rax,%rax,1)

0000000000401280 <strncpy@plt>:
  401280:	f3 0f 1e fa          	endbr64 
  401284:	f2 ff 25 a5 5d 00 00 	bnd jmp *0x5da5(%rip)        # 407030 <strncpy@GLIBC_2.2.5>
  40128b:	0f 1f 44 00 00       	nopl   0x0(%rax,%rax,1)

0000000000401290 <strncmp@plt>:
  401290:	f3 0f 1e fa          	endbr64 
  401294:	f2 ff 25 9d 5d 00 00 	bnd jmp *0x5d9d(%rip)        # 407038 <strncmp@GLIBC_2.2.5>
  40129b:	0f 1f 44 00 00       	nopl   0x0(%rax,%rax,1)

00000000004012a0 <strcpy@plt>:
  4012a0:	f3 0f 1e fa          	endbr64 
  4012a4:	f2 ff 25 95 5d 00 00 	bnd jmp *0x5d95(%rip)        # 407040 <strcpy@GLIBC_2.2.5>
  4012ab:	0f 1f 44 00 00       	nopl   0x0(%rax,%rax,1)

00000000004012b0 <puts@plt>:
  4012b0:	f3 0f 1e fa          	endbr64 
  4012b4:	f2 ff 25 8d 5d 00 00 	bnd jmp *0x5d8d(%rip)        # 407048 <puts@GLIBC_2.2.5>
  4012bb:	0f 1f 44 00 00       	nopl   0x0(%rax,%rax,1)

00000000004012c0 <write@plt>:
  4012c0:	f3 0f 1e fa          	endbr64 
  4012c4:	f2 ff 25 85 5d 00 00 	bnd jmp *0x5d85(%rip)        # 407050 <write@GLIBC_2.2.5>
  4012cb:	0f 1f 44 00 00       	nopl   0x0(%rax,%rax,1)

00000000004012d0 <mmap@plt>:
  4012d0:	f3 0f 1e fa          	endbr64 
  4012d4:	f2 ff 25 7d 5d 00 00 	bnd jmp *0x5d7d(%rip)        # 407058 <mmap@GLIBC_2.2.5>
  4012db:	0f 1f 44 00 00       	nopl   0x0(%rax,%rax,1)

00000000004012e0 <memset@plt>:
  4012e0:	f3 0f 1e fa          	endbr64 
  4012e4:	f2 ff 25 75 5d 00 00 	bnd jmp *0x5d75(%rip)        # 407060 <memset@GLIBC_2.2.5>
  4012eb:	0f 1f 44 00 00       	nopl   0x0(%rax,%rax,1)

00000000004012f0 <alarm@plt>:
  4012f0:	f3 0f 1e fa          	endbr64 
  4012f4:	f2 ff 25 6d 5d 00 00 	bnd jmp *0x5d6d(%rip)        # 407068 <alarm@GLIBC_2.2.5>
  4012fb:	0f 1f 44 00 00       	nopl   0x0(%rax,%rax,1)

0000000000401300 <close@plt>:
  401300:	f3 0f 1e fa          	endbr64 
  401304:	f2 ff 25 65 5d 00 00 	bnd jmp *0x5d65(%rip)        # 407070 <close@GLIBC_2.2.5>
  40130b:	0f 1f 44 00 00       	nopl   0x0(%rax,%rax,1)

0000000000401310 <read@plt>:
  401310:	f3 0f 1e fa          	endbr64 
  401314:	f2 ff 25 5d 5d 00 00 	bnd jmp *0x5d5d(%rip)        # 407078 <read@GLIBC_2.2.5>
  40131b:	0f 1f 44 00 00       	nopl   0x0(%rax,%rax,1)

0000000000401320 <strcmp@plt>:
  401320:	f3 0f 1e fa          	endbr64 
  401324:	f2 ff 25 55 5d 00 00 	bnd jmp *0x5d55(%rip)        # 407080 <strcmp@GLIBC_2.2.5>
  40132b:	0f 1f 44 00 00       	nopl   0x0(%rax,%rax,1)

0000000000401330 <signal@plt>:
  401330:	f3 0f 1e fa          	endbr64 
  401334:	f2 ff 25 4d 5d 00 00 	bnd jmp *0x5d4d(%rip)        # 407088 <signal@GLIBC_2.2.5>
  40133b:	0f 1f 44 00 00       	nopl   0x0(%rax,%rax,1)

0000000000401340 <gethostbyname@plt>:
  401340:	f3 0f 1e fa          	endbr64 
  401344:	f2 ff 25 45 5d 00 00 	bnd jmp *0x5d45(%rip)        # 407090 <gethostbyname@GLIBC_2.2.5>
  40134b:	0f 1f 44 00 00       	nopl   0x0(%rax,%rax,1)

0000000000401350 <__memmove_chk@plt>:
  401350:	f3 0f 1e fa          	endbr64 
  401354:	f2 ff 25 3d 5d 00 00 	bnd jmp *0x5d3d(%rip)        # 407098 <__memmove_chk@GLIBC_2.3.4>
  40135b:	0f 1f 44 00 00       	nopl   0x0(%rax,%rax,1)

0000000000401360 <strtol@plt>:
  401360:	f3 0f 1e fa          	endbr64 
  401364:	f2 ff 25 35 5d 00 00 	bnd jmp *0x5d35(%rip)        # 4070a0 <strtol@GLIBC_2.2.5>
  40136b:	0f 1f 44 00 00       	nopl   0x0(%rax,%rax,1)

0000000000401370 <memcpy@plt>:
  401370:	f3 0f 1e fa          	endbr64 
  401374:	f2 ff 25 2d 5d 00 00 	bnd jmp *0x5d2d(%rip)        # 4070a8 <memcpy@GLIBC_2.14>
  40137b:	0f 1f 44 00 00       	nopl   0x0(%rax,%rax,1)

0000000000401380 <time@plt>:
  401380:	f3 0f 1e fa          	endbr64 
  401384:	f2 ff 25 25 5d 00 00 	bnd jmp *0x5d25(%rip)        # 4070b0 <time@GLIBC_2.2.5>
  40138b:	0f 1f 44 00 00       	nopl   0x0(%rax,%rax,1)

0000000000401390 <random@plt>:
  401390:	f3 0f 1e fa          	endbr64 
  401394:	f2 ff 25 1d 5d 00 00 	bnd jmp *0x5d1d(%rip)        # 4070b8 <random@GLIBC_2.2.5>
  40139b:	0f 1f 44 00 00       	nopl   0x0(%rax,%rax,1)

00000000004013a0 <__isoc99_sscanf@plt>:
  4013a0:	f3 0f 1e fa          	endbr64 
  4013a4:	f2 ff 25 15 5d 00 00 	bnd jmp *0x5d15(%rip)        # 4070c0 <__isoc99_sscanf@GLIBC_2.7>
  4013ab:	0f 1f 44 00 00       	nopl   0x0(%rax,%rax,1)

00000000004013b0 <munmap@plt>:
  4013b0:	f3 0f 1e fa          	endbr64 
  4013b4:	f2 ff 25 0d 5d 00 00 	bnd jmp *0x5d0d(%rip)        # 4070c8 <munmap@GLIBC_2.2.5>
  4013bb:	0f 1f 44 00 00       	nopl   0x0(%rax,%rax,1)

00000000004013c0 <__printf_chk@plt>:
  4013c0:	f3 0f 1e fa          	endbr64 
  4013c4:	f2 ff 25 05 5d 00 00 	bnd jmp *0x5d05(%rip)        # 4070d0 <__printf_chk@GLIBC_2.3.4>
  4013cb:	0f 1f 44 00 00       	nopl   0x0(%rax,%rax,1)

00000000004013d0 <fopen@plt>:
  4013d0:	f3 0f 1e fa          	endbr64 
  4013d4:	f2 ff 25 fd 5c 00 00 	bnd jmp *0x5cfd(%rip)        # 4070d8 <fopen@GLIBC_2.2.5>
  4013db:	0f 1f 44 00 00       	nopl   0x0(%rax,%rax,1)

00000000004013e0 <getopt@plt>:
  4013e0:	f3 0f 1e fa          	endbr64 
  4013e4:	f2 ff 25 f5 5c 00 00 	bnd jmp *0x5cf5(%rip)        # 4070e0 <getopt@GLIBC_2.2.5>
  4013eb:	0f 1f 44 00 00       	nopl   0x0(%rax,%rax,1)

00000000004013f0 <strtoul@plt>:
  4013f0:	f3 0f 1e fa          	endbr64 
  4013f4:	f2 ff 25 ed 5c 00 00 	bnd jmp *0x5ced(%rip)        # 4070e8 <strtoul@GLIBC_2.2.5>
  4013fb:	0f 1f 44 00 00       	nopl   0x0(%rax,%rax,1)

0000000000401400 <gethostname@plt>:
  401400:	f3 0f 1e fa          	endbr64 
  401404:	f2 ff 25 e5 5c 00 00 	bnd jmp *0x5ce5(%rip)        # 4070f0 <gethostname@GLIBC_2.2.5>
  40140b:	0f 1f 44 00 00       	nopl   0x0(%rax,%rax,1)

0000000000401410 <exit@plt>:
  401410:	f3 0f 1e fa          	endbr64 
  401414:	f2 ff 25 dd 5c 00 00 	bnd jmp *0x5cdd(%rip)        # 4070f8 <exit@GLIBC_2.2.5>
  40141b:	0f 1f 44 00 00       	nopl   0x0(%rax,%rax,1)

0000000000401420 <connect@plt>:
  401420:	f3 0f 1e fa          	endbr64 
  401424:	f2 ff 25 d5 5c 00 00 	bnd jmp *0x5cd5(%rip)        # 407100 <connect@GLIBC_2.2.5>
  40142b:	0f 1f 44 00 00       	nopl   0x0(%rax,%rax,1)

0000000000401430 <__fprintf_chk@plt>:
  401430:	f3 0f 1e fa          	endbr64 
  401434:	f2 ff 25 cd 5c 00 00 	bnd jmp *0x5ccd(%rip)        # 407108 <__fprintf_chk@GLIBC_2.3.4>
  40143b:	0f 1f 44 00 00       	nopl   0x0(%rax,%rax,1)

0000000000401440 <getc@plt>:
  401440:	f3 0f 1e fa          	endbr64 
  401444:	f2 ff 25 c5 5c 00 00 	bnd jmp *0x5cc5(%rip)        # 407110 <getc@GLIBC_2.2.5>
  40144b:	0f 1f 44 00 00       	nopl   0x0(%rax,%rax,1)

0000000000401450 <__sprintf_chk@plt>:
  401450:	f3 0f 1e fa          	endbr64 
  401454:	f2 ff 25 bd 5c 00 00 	bnd jmp *0x5cbd(%rip)        # 407118 <__sprintf_chk@GLIBC_2.3.4>
  40145b:	0f 1f 44 00 00       	nopl   0x0(%rax,%rax,1)

0000000000401460 <socket@plt>:
  401460:	f3 0f 1e fa          	endbr64 
  401464:	f2 ff 25 b5 5c 00 00 	bnd jmp *0x5cb5(%rip)        # 407120 <socket@GLIBC_2.2.5>
  40146b:	0f 1f 44 00 00       	nopl   0x0(%rax,%rax,1)

Disassembly of section .text:

0000000000401470 <_start>:
  401470:	f3 0f 1e fa          	endbr64 
  401474:	31 ed                	xor    %ebp,%ebp
  401476:	49 89 d1             	mov    %rdx,%r9
  401479:	5e                   	pop    %rsi
  40147a:	48 89 e2             	mov    %rsp,%rdx
  40147d:	48 83 e4 f0          	and    $0xfffffffffffffff0,%rsp
  401481:	50                   	push   %rax
  401482:	54                   	push   %rsp
  401483:	49 c7 c0 40 37 40 00 	mov    $0x403740,%r8
  40148a:	48 c7 c1 d0 36 40 00 	mov    $0x4036d0,%rcx
  401491:	48 c7 c7 99 17 40 00 	mov    $0x401799,%rdi
  401498:	ff 15 52 5b 00 00    	call   *0x5b52(%rip)        # 406ff0 <__libc_start_main@GLIBC_2.2.5>
  40149e:	f4                   	hlt    
  40149f:	90                   	nop

00000000004014a0 <_dl_relocate_static_pie>:
  4014a0:	f3 0f 1e fa          	endbr64 
  4014a4:	c3                   	ret    
  4014a5:	66 2e 0f 1f 84 00 00 	cs nopw 0x0(%rax,%rax,1)
  4014ac:	00 00 00 
  4014af:	90                   	nop

00000000004014b0 <deregister_tm_clones>:
  4014b0:	b8 b0 74 40 00       	mov    $0x4074b0,%eax
  4014b5:	48 3d b0 74 40 00    	cmp    $0x4074b0,%rax
  4014bb:	74 13                	je     4014d0 <deregister_tm_clones+0x20>
  4014bd:	b8 00 00 00 00       	mov    $0x0,%eax
  4014c2:	48 85 c0             	test   %rax,%rax
  4014c5:	74 09                	je     4014d0 <deregister_tm_clones+0x20>
  4014c7:	bf b0 74 40 00       	mov    $0x4074b0,%edi
  4014cc:	ff e0                	jmp    *%rax
  4014ce:	66 90                	xchg   %ax,%ax
  4014d0:	c3                   	ret    
  4014d1:	66 66 2e 0f 1f 84 00 	data16 cs nopw 0x0(%rax,%rax,1)
  4014d8:	00 00 00 00 
  4014dc:	0f 1f 40 00          	nopl   0x0(%rax)

00000000004014e0 <register_tm_clones>:
  4014e0:	be b0 74 40 00       	mov    $0x4074b0,%esi
  4014e5:	48 81 ee b0 74 40 00 	sub    $0x4074b0,%rsi
  4014ec:	48 89 f0             	mov    %rsi,%rax
  4014ef:	48 c1 ee 3f          	shr    $0x3f,%rsi
  4014f3:	48 c1 f8 03          	sar    $0x3,%rax
  4014f7:	48 01 c6             	add    %rax,%rsi
  4014fa:	48 d1 fe             	sar    %rsi
  4014fd:	74 11                	je     401510 <register_tm_clones+0x30>
  4014ff:	b8 00 00 00 00       	mov    $0x0,%eax
  401504:	48 85 c0             	test   %rax,%rax
  401507:	74 07                	je     401510 <register_tm_clones+0x30>
  401509:	bf b0 74 40 00       	mov    $0x4074b0,%edi
  40150e:	ff e0                	jmp    *%rax
  401510:	c3                   	ret    
  401511:	66 66 2e 0f 1f 84 00 	data16 cs nopw 0x0(%rax,%rax,1)
  401518:	00 00 00 00 
  40151c:	0f 1f 40 00          	nopl   0x0(%rax)

0000000000401520 <__do_global_dtors_aux>:
  401520:	f3 0f 1e fa          	endbr64 
  401524:	80 3d bd 5f 00 00 00 	cmpb   $0x0,0x5fbd(%rip)        # 4074e8 <completed.8060>
  40152b:	75 13                	jne    401540 <__do_global_dtors_aux+0x20>
  40152d:	55                   	push   %rbp
  40152e:	48 89 e5             	mov    %rsp,%rbp
  401531:	e8 7a ff ff ff       	call   4014b0 <deregister_tm_clones>
  401536:	c6 05 ab 5f 00 00 01 	movb   $0x1,0x5fab(%rip)        # 4074e8 <completed.8060>
  40153d:	5d                   	pop    %rbp
  40153e:	c3                   	ret    
  40153f:	90                   	nop
  401540:	c3                   	ret    
  401541:	66 66 2e 0f 1f 84 00 	data16 cs nopw 0x0(%rax,%rax,1)
  401548:	00 00 00 00 
  40154c:	0f 1f 40 00          	nopl   0x0(%rax)

0000000000401550 <frame_dummy>:
  401550:	f3 0f 1e fa          	endbr64 
  401554:	eb 8a                	jmp    4014e0 <register_tm_clones>

0000000000401556 <usage>:
  401556:	50                   	push   %rax
  401557:	58                   	pop    %rax
  401558:	48 83 ec 08          	sub    $0x8,%rsp
  40155c:	48 89 fa             	mov    %rdi,%rdx
  40155f:	83 3d c2 5f 00 00 00 	cmpl   $0x0,0x5fc2(%rip)        # 407528 <is_checker>
  401566:	74 50                	je     4015b8 <usage+0x62>
  401568:	48 8d 35 99 2a 00 00 	lea    0x2a99(%rip),%rsi        # 404008 <_IO_stdin_used+0x8>
  40156f:	bf 01 00 00 00       	mov    $0x1,%edi
  401574:	b8 00 00 00 00       	mov    $0x0,%eax
  401579:	e8 42 fe ff ff       	call   4013c0 <__printf_chk@plt>
  40157e:	48 8d 3d bb 2a 00 00 	lea    0x2abb(%rip),%rdi        # 404040 <_IO_stdin_used+0x40>
  401585:	e8 26 fd ff ff       	call   4012b0 <puts@plt>
  40158a:	48 8d 3d 3f 2c 00 00 	lea    0x2c3f(%rip),%rdi        # 4041d0 <_IO_stdin_used+0x1d0>
  401591:	e8 1a fd ff ff       	call   4012b0 <puts@plt>
  401596:	48 8d 3d cb 2a 00 00 	lea    0x2acb(%rip),%rdi        # 404068 <_IO_stdin_used+0x68>
  40159d:	e8 0e fd ff ff       	call   4012b0 <puts@plt>
  4015a2:	48 8d 3d 41 2c 00 00 	lea    0x2c41(%rip),%rdi        # 4041ea <_IO_stdin_used+0x1ea>
  4015a9:	e8 02 fd ff ff       	call   4012b0 <puts@plt>
  4015ae:	bf 00 00 00 00       	mov    $0x0,%edi
  4015b3:	e8 58 fe ff ff       	call   401410 <exit@plt>
  4015b8:	48 8d 35 47 2c 00 00 	lea    0x2c47(%rip),%rsi        # 404206 <_IO_stdin_used+0x206>
  4015bf:	bf 01 00 00 00       	mov    $0x1,%edi
  4015c4:	b8 00 00 00 00       	mov    $0x0,%eax
  4015c9:	e8 f2 fd ff ff       	call   4013c0 <__printf_chk@plt>
  4015ce:	48 8d 3d bb 2a 00 00 	lea    0x2abb(%rip),%rdi        # 404090 <_IO_stdin_used+0x90>
  4015d5:	e8 d6 fc ff ff       	call   4012b0 <puts@plt>
  4015da:	48 8d 3d d7 2a 00 00 	lea    0x2ad7(%rip),%rdi        # 4040b8 <_IO_stdin_used+0xb8>
  4015e1:	e8 ca fc ff ff       	call   4012b0 <puts@plt>
  4015e6:	48 8d 3d 37 2c 00 00 	lea    0x2c37(%rip),%rdi        # 404224 <_IO_stdin_used+0x224>
  4015ed:	e8 be fc ff ff       	call   4012b0 <puts@plt>
  4015f2:	eb ba                	jmp    4015ae <usage+0x58>

00000000004015f4 <initialize_target>:
  4015f4:	55                   	push   %rbp
  4015f5:	53                   	push   %rbx
  4015f6:	48 81 ec 00 10 00 00 	sub    $0x1000,%rsp
  4015fd:	48 83 0c 24 00       	orq    $0x0,(%rsp)
  401602:	48 81 ec 00 10 00 00 	sub    $0x1000,%rsp
  401609:	48 83 0c 24 00       	orq    $0x0,(%rsp)
  40160e:	48 81 ec 18 01 00 00 	sub    $0x118,%rsp
  401615:	89 f5                	mov    %esi,%ebp
  401617:	64 48 8b 04 25 28 00 	mov    %fs:0x28,%rax
  40161e:	00 00 
  401620:	48 89 84 24 08 21 00 	mov    %rax,0x2108(%rsp)
  401627:	00 
  401628:	31 c0                	xor    %eax,%eax
  40162a:	89 3d e8 5e 00 00    	mov    %edi,0x5ee8(%rip)        # 407518 <check_level>
  401630:	8b 3d 1a 5b 00 00    	mov    0x5b1a(%rip),%edi        # 407150 <target_id>
  401636:	e8 6f 20 00 00       	call   4036aa <gencookie>
  40163b:	89 c7                	mov    %eax,%edi
  40163d:	89 05 e1 5e 00 00    	mov    %eax,0x5ee1(%rip)        # 407524 <cookie>
  401643:	e8 62 20 00 00       	call   4036aa <gencookie>
  401648:	89 05 d2 5e 00 00    	mov    %eax,0x5ed2(%rip)        # 407520 <authkey>
  40164e:	8b 05 fc 5a 00 00    	mov    0x5afc(%rip),%eax        # 407150 <target_id>
  401654:	8d 78 01             	lea    0x1(%rax),%edi
  401657:	e8 14 fc ff ff       	call   401270 <srandom@plt>
  40165c:	e8 2f fd ff ff       	call   401390 <random@plt>
  401661:	48 89 c7             	mov    %rax,%rdi
  401664:	e8 9b 03 00 00       	call   401a04 <scramble>
  401669:	89 c3                	mov    %eax,%ebx
  40166b:	85 ed                	test   %ebp,%ebp
  40166d:	75 54                	jne    4016c3 <initialize_target+0xcf>
  40166f:	b8 00 00 00 00       	mov    $0x0,%eax
  401674:	01 d8                	add    %ebx,%eax
  401676:	0f b7 c0             	movzwl %ax,%eax
  401679:	8d 04 c5 00 01 00 00 	lea    0x100(,%rax,8),%eax
  401680:	89 c0                	mov    %eax,%eax
  401682:	48 89 05 1f 5e 00 00 	mov    %rax,0x5e1f(%rip)        # 4074a8 <buf_offset>
  401689:	c6 05 b8 6a 00 00 63 	movb   $0x63,0x6ab8(%rip)        # 408148 <target_prefix>
  401690:	83 3d 09 5e 00 00 00 	cmpl   $0x0,0x5e09(%rip)        # 4074a0 <notify>
  401697:	74 09                	je     4016a2 <initialize_target+0xae>
  401699:	83 3d 88 5e 00 00 00 	cmpl   $0x0,0x5e88(%rip)        # 407528 <is_checker>
  4016a0:	74 3a                	je     4016dc <initialize_target+0xe8>
  4016a2:	48 8b 84 24 08 21 00 	mov    0x2108(%rsp),%rax
  4016a9:	00 
  4016aa:	64 48 33 04 25 28 00 	xor    %fs:0x28,%rax
  4016b1:	00 00 
  4016b3:	0f 85 db 00 00 00    	jne    401794 <initialize_target+0x1a0>
  4016b9:	48 81 c4 18 21 00 00 	add    $0x2118,%rsp
  4016c0:	5b                   	pop    %rbx
  4016c1:	5d                   	pop    %rbp
  4016c2:	c3                   	ret    
  4016c3:	bf 00 00 00 00       	mov    $0x0,%edi
  4016c8:	e8 b3 fc ff ff       	call   401380 <time@plt>
  4016cd:	48 89 c7             	mov    %rax,%rdi
  4016d0:	e8 9b fb ff ff       	call   401270 <srandom@plt>
  4016d5:	e8 b6 fc ff ff       	call   401390 <random@plt>
  4016da:	eb 98                	jmp    401674 <initialize_target+0x80>
  4016dc:	48 89 e7             	mov    %rsp,%rdi
  4016df:	be 00 01 00 00       	mov    $0x100,%esi
  4016e4:	e8 17 fd ff ff       	call   401400 <gethostname@plt>
  4016e9:	89 c5                	mov    %eax,%ebp
  4016eb:	85 c0                	test   %eax,%eax
  4016ed:	75 26                	jne    401715 <initialize_target+0x121>
  4016ef:	89 c3                	mov    %eax,%ebx
  4016f1:	48 63 c3             	movslq %ebx,%rax
  4016f4:	48 8d 15 85 5a 00 00 	lea    0x5a85(%rip),%rdx        # 407180 <host_table>
  4016fb:	48 8b 3c c2          	mov    (%rdx,%rax,8),%rdi
  4016ff:	48 85 ff             	test   %rdi,%rdi
  401702:	74 2c                	je     401730 <initialize_target+0x13c>
  401704:	48 89 e6             	mov    %rsp,%rsi
  401707:	e8 44 fb ff ff       	call   401250 <strcasecmp@plt>
  40170c:	85 c0                	test   %eax,%eax
  40170e:	74 1b                	je     40172b <initialize_target+0x137>
  401710:	83 c3 01             	add    $0x1,%ebx
  401713:	eb dc                	jmp    4016f1 <initialize_target+0xfd>
  401715:	48 8d 3d cc 29 00 00 	lea    0x29cc(%rip),%rdi        # 4040e8 <_IO_stdin_used+0xe8>
  40171c:	e8 8f fb ff ff       	call   4012b0 <puts@plt>
  401721:	bf 08 00 00 00       	mov    $0x8,%edi
  401726:	e8 e5 fc ff ff       	call   401410 <exit@plt>
  40172b:	bd 01 00 00 00       	mov    $0x1,%ebp
  401730:	85 ed                	test   %ebp,%ebp
  401732:	74 3d                	je     401771 <initialize_target+0x17d>
  401734:	48 8d bc 24 00 01 00 	lea    0x100(%rsp),%rdi
  40173b:	00 
  40173c:	e8 ae 1c 00 00       	call   4033ef <init_driver>
  401741:	85 c0                	test   %eax,%eax
  401743:	0f 89 59 ff ff ff    	jns    4016a2 <initialize_target+0xae>
  401749:	48 8d 94 24 00 01 00 	lea    0x100(%rsp),%rdx
  401750:	00 
  401751:	48 8d 35 08 2a 00 00 	lea    0x2a08(%rip),%rsi        # 404160 <_IO_stdin_used+0x160>
  401758:	bf 01 00 00 00       	mov    $0x1,%edi
  40175d:	b8 00 00 00 00       	mov    $0x0,%eax
  401762:	e8 59 fc ff ff       	call   4013c0 <__printf_chk@plt>
  401767:	bf 08 00 00 00       	mov    $0x8,%edi
  40176c:	e8 9f fc ff ff       	call   401410 <exit@plt>
  401771:	48 89 e2             	mov    %rsp,%rdx
  401774:	48 8d 35 a5 29 00 00 	lea    0x29a5(%rip),%rsi        # 404120 <_IO_stdin_used+0x120>
  40177b:	bf 01 00 00 00       	mov    $0x1,%edi
  401780:	b8 00 00 00 00       	mov    $0x0,%eax
  401785:	e8 36 fc ff ff       	call   4013c0 <__printf_chk@plt>
  40178a:	bf 08 00 00 00       	mov    $0x8,%edi
  40178f:	e8 7c fc ff ff       	call   401410 <exit@plt>
  401794:	e8 78 0f 00 00       	call   402711 <__stack_chk_fail>

0000000000401799 <main>:
  401799:	f3 0f 1e fa          	endbr64 
  40179d:	41 56                	push   %r14
  40179f:	41 55                	push   %r13
  4017a1:	41 54                	push   %r12
  4017a3:	55                   	push   %rbp
  4017a4:	53                   	push   %rbx
  4017a5:	48 83 ec 60          	sub    $0x60,%rsp
  4017a9:	89 fd                	mov    %edi,%ebp
  4017ab:	48 89 f3             	mov    %rsi,%rbx
  4017ae:	64 48 8b 04 25 28 00 	mov    %fs:0x28,%rax
  4017b5:	00 00 
  4017b7:	48 89 44 24 58       	mov    %rax,0x58(%rsp)
  4017bc:	31 c0                	xor    %eax,%eax
  4017be:	48 b8 53 70 69 72 69 	movabs $0x6465746972697053,%rax
  4017c5:	74 65 64 
  4017c8:	48 89 04 24          	mov    %rax,(%rsp)
  4017cc:	c7 44 24 08 41 77 61 	movl   $0x79617741,0x8(%rsp)
  4017d3:	79 
  4017d4:	66 c7 44 24 0c 43 4e 	movw   $0x4e43,0xc(%rsp)
  4017db:	c6 44 24 0e 00       	movb   $0x0,0xe(%rsp)
  4017e0:	48 c7 c6 00 26 40 00 	mov    $0x402600,%rsi
  4017e7:	bf 0b 00 00 00       	mov    $0xb,%edi
  4017ec:	e8 3f fb ff ff       	call   401330 <signal@plt>
  4017f1:	48 c7 c6 a6 25 40 00 	mov    $0x4025a6,%rsi
  4017f8:	bf 07 00 00 00       	mov    $0x7,%edi
  4017fd:	e8 2e fb ff ff       	call   401330 <signal@plt>
  401802:	48 c7 c6 5a 26 40 00 	mov    $0x40265a,%rsi
  401809:	bf 04 00 00 00       	mov    $0x4,%edi
  40180e:	e8 1d fb ff ff       	call   401330 <signal@plt>
  401813:	83 3d 0e 5d 00 00 00 	cmpl   $0x0,0x5d0e(%rip)        # 407528 <is_checker>
  40181a:	75 26                	jne    401842 <main+0xa9>
  40181c:	4c 8d 25 24 2a 00 00 	lea    0x2a24(%rip),%r12        # 404247 <_IO_stdin_used+0x247>
  401823:	48 8b 05 96 5c 00 00 	mov    0x5c96(%rip),%rax        # 4074c0 <stdin@GLIBC_2.2.5>
  40182a:	48 89 05 df 5c 00 00 	mov    %rax,0x5cdf(%rip)        # 407510 <infile>
  401831:	41 bd 00 00 00 00    	mov    $0x0,%r13d
  401837:	41 be 00 00 00 00    	mov    $0x0,%r14d
  40183d:	e9 8d 00 00 00       	jmp    4018cf <main+0x136>
  401842:	48 c7 c6 b4 26 40 00 	mov    $0x4026b4,%rsi
  401849:	bf 0e 00 00 00       	mov    $0xe,%edi
  40184e:	e8 dd fa ff ff       	call   401330 <signal@plt>
  401853:	bf 02 00 00 00       	mov    $0x2,%edi
  401858:	e8 93 fa ff ff       	call   4012f0 <alarm@plt>
  40185d:	4c 8d 25 d9 29 00 00 	lea    0x29d9(%rip),%r12        # 40423d <_IO_stdin_used+0x23d>
  401864:	eb bd                	jmp    401823 <main+0x8a>
  401866:	48 8b 3b             	mov    (%rbx),%rdi
  401869:	e8 e8 fc ff ff       	call   401556 <usage>
  40186e:	48 8d 35 9f 2a 00 00 	lea    0x2a9f(%rip),%rsi        # 404314 <_IO_stdin_used+0x314>
  401875:	48 8b 3d 4c 5c 00 00 	mov    0x5c4c(%rip),%rdi        # 4074c8 <optarg@GLIBC_2.2.5>
  40187c:	e8 4f fb ff ff       	call   4013d0 <fopen@plt>
  401881:	48 89 05 88 5c 00 00 	mov    %rax,0x5c88(%rip)        # 407510 <infile>
  401888:	48 85 c0             	test   %rax,%rax
  40188b:	75 42                	jne    4018cf <main+0x136>
  40188d:	48 8b 0d 34 5c 00 00 	mov    0x5c34(%rip),%rcx        # 4074c8 <optarg@GLIBC_2.2.5>
  401894:	48 8d 15 b1 29 00 00 	lea    0x29b1(%rip),%rdx        # 40424c <_IO_stdin_used+0x24c>
  40189b:	be 01 00 00 00       	mov    $0x1,%esi
  4018a0:	48 8b 3d 39 5c 00 00 	mov    0x5c39(%rip),%rdi        # 4074e0 <stderr@GLIBC_2.2.5>
  4018a7:	e8 84 fb ff ff       	call   401430 <__fprintf_chk@plt>
  4018ac:	b8 01 00 00 00       	mov    $0x1,%eax
  4018b1:	e9 2c 01 00 00       	jmp    4019e2 <main+0x249>
  4018b6:	ba 10 00 00 00       	mov    $0x10,%edx
  4018bb:	be 00 00 00 00       	mov    $0x0,%esi
  4018c0:	48 8b 3d 01 5c 00 00 	mov    0x5c01(%rip),%rdi        # 4074c8 <optarg@GLIBC_2.2.5>
  4018c7:	e8 24 fb ff ff       	call   4013f0 <strtoul@plt>
  4018cc:	41 89 c6             	mov    %eax,%r14d
  4018cf:	4c 89 e2             	mov    %r12,%rdx
  4018d2:	48 89 de             	mov    %rbx,%rsi
  4018d5:	89 ef                	mov    %ebp,%edi
  4018d7:	e8 04 fb ff ff       	call   4013e0 <getopt@plt>
  4018dc:	3c ff                	cmp    $0xff,%al
  4018de:	74 7b                	je     40195b <main+0x1c2>
  4018e0:	0f be c8             	movsbl %al,%ecx
  4018e3:	83 e8 61             	sub    $0x61,%eax
  4018e6:	3c 14                	cmp    $0x14,%al
  4018e8:	77 51                	ja     40193b <main+0x1a2>
  4018ea:	0f b6 c0             	movzbl %al,%eax
  4018ed:	48 8d 15 98 29 00 00 	lea    0x2998(%rip),%rdx        # 40428c <_IO_stdin_used+0x28c>
  4018f4:	48 63 04 82          	movslq (%rdx,%rax,4),%rax
  4018f8:	48 01 d0             	add    %rdx,%rax
  4018fb:	3e ff e0             	notrack jmp *%rax
  4018fe:	ba 0a 00 00 00       	mov    $0xa,%edx
  401903:	be 00 00 00 00       	mov    $0x0,%esi
  401908:	48 8b 3d b9 5b 00 00 	mov    0x5bb9(%rip),%rdi        # 4074c8 <optarg@GLIBC_2.2.5>
  40190f:	e8 4c fa ff ff       	call   401360 <strtol@plt>
  401914:	41 89 c5             	mov    %eax,%r13d
  401917:	eb b6                	jmp    4018cf <main+0x136>
  401919:	c7 05 7d 5b 00 00 00 	movl   $0x0,0x5b7d(%rip)        # 4074a0 <notify>
  401920:	00 00 00 
  401923:	eb aa                	jmp    4018cf <main+0x136>
  401925:	48 89 e7             	mov    %rsp,%rdi
  401928:	ba 50 00 00 00       	mov    $0x50,%edx
  40192d:	48 8b 35 94 5b 00 00 	mov    0x5b94(%rip),%rsi        # 4074c8 <optarg@GLIBC_2.2.5>
  401934:	e8 47 f9 ff ff       	call   401280 <strncpy@plt>
  401939:	eb 94                	jmp    4018cf <main+0x136>
  40193b:	89 ca                	mov    %ecx,%edx
  40193d:	48 8d 35 25 29 00 00 	lea    0x2925(%rip),%rsi        # 404269 <_IO_stdin_used+0x269>
  401944:	bf 01 00 00 00       	mov    $0x1,%edi
  401949:	b8 00 00 00 00       	mov    $0x0,%eax
  40194e:	e8 6d fa ff ff       	call   4013c0 <__printf_chk@plt>
  401953:	48 8b 3b             	mov    (%rbx),%rdi
  401956:	e8 fb fb ff ff       	call   401556 <usage>
  40195b:	be 00 00 00 00       	mov    $0x0,%esi
  401960:	44 89 ef             	mov    %r13d,%edi
  401963:	e8 8c fc ff ff       	call   4015f4 <initialize_target>
  401968:	83 3d b9 5b 00 00 00 	cmpl   $0x0,0x5bb9(%rip)        # 407528 <is_checker>
  40196f:	74 3f                	je     4019b0 <main+0x217>
  401971:	44 39 35 a8 5b 00 00 	cmp    %r14d,0x5ba8(%rip)        # 407520 <authkey>
  401978:	75 13                	jne    40198d <main+0x1f4>
  40197a:	48 89 e7             	mov    %rsp,%rdi
  40197d:	48 8b 35 dc 57 00 00 	mov    0x57dc(%rip),%rsi        # 407160 <user_id>
  401984:	e8 97 f9 ff ff       	call   401320 <strcmp@plt>
  401989:	85 c0                	test   %eax,%eax
  40198b:	74 23                	je     4019b0 <main+0x217>
  40198d:	44 89 f2             	mov    %r14d,%edx
  401990:	48 8d 35 f1 27 00 00 	lea    0x27f1(%rip),%rsi        # 404188 <_IO_stdin_used+0x188>
  401997:	bf 01 00 00 00       	mov    $0x1,%edi
  40199c:	b8 00 00 00 00       	mov    $0x0,%eax
  4019a1:	e8 1a fa ff ff       	call   4013c0 <__printf_chk@plt>
  4019a6:	b8 00 00 00 00       	mov    $0x0,%eax
  4019ab:	e8 3f 08 00 00       	call   4021ef <check_fail>
  4019b0:	8b 15 6e 5b 00 00    	mov    0x5b6e(%rip),%edx        # 407524 <cookie>
  4019b6:	48 8d 35 bf 28 00 00 	lea    0x28bf(%rip),%rsi        # 40427c <_IO_stdin_used+0x27c>
  4019bd:	bf 01 00 00 00       	mov    $0x1,%edi
  4019c2:	b8 00 00 00 00       	mov    $0x0,%eax
  4019c7:	e8 f4 f9 ff ff       	call   4013c0 <__printf_chk@plt>
  4019cc:	be 00 00 00 00       	mov    $0x0,%esi
  4019d1:	48 8b 3d d0 5a 00 00 	mov    0x5ad0(%rip),%rdi        # 4074a8 <buf_offset>
  4019d8:	e8 90 0e 00 00       	call   40286d <stable_launch>
  4019dd:	b8 00 00 00 00       	mov    $0x0,%eax
  4019e2:	48 8b 4c 24 58       	mov    0x58(%rsp),%rcx
  4019e7:	64 48 33 0c 25 28 00 	xor    %fs:0x28,%rcx
  4019ee:	00 00 
  4019f0:	75 0d                	jne    4019ff <main+0x266>
  4019f2:	48 83 c4 60          	add    $0x60,%rsp
  4019f6:	5b                   	pop    %rbx
  4019f7:	5d                   	pop    %rbp
  4019f8:	41 5c                	pop    %r12
  4019fa:	41 5d                	pop    %r13
  4019fc:	41 5e                	pop    %r14
  4019fe:	c3                   	ret    
  4019ff:	e8 0d 0d 00 00       	call   402711 <__stack_chk_fail>

0000000000401a04 <scramble>:
  401a04:	f3 0f 1e fa          	endbr64 
  401a08:	48 83 ec 38          	sub    $0x38,%rsp
  401a0c:	64 48 8b 04 25 28 00 	mov    %fs:0x28,%rax
  401a13:	00 00 
  401a15:	48 89 44 24 28       	mov    %rax,0x28(%rsp)
  401a1a:	31 c0                	xor    %eax,%eax
  401a1c:	83 f8 09             	cmp    $0x9,%eax
  401a1f:	77 12                	ja     401a33 <scramble+0x2f>
  401a21:	69 d0 da 49 00 00    	imul   $0x49da,%eax,%edx
  401a27:	01 fa                	add    %edi,%edx
  401a29:	89 c1                	mov    %eax,%ecx
  401a2b:	89 14 8c             	mov    %edx,(%rsp,%rcx,4)
  401a2e:	83 c0 01             	add    $0x1,%eax
  401a31:	eb e9                	jmp    401a1c <scramble+0x18>
  401a33:	8b 44 24 0c          	mov    0xc(%rsp),%eax
  401a37:	69 c0 83 23 00 00    	imul   $0x2383,%eax,%eax
  401a3d:	89 44 24 0c          	mov    %eax,0xc(%rsp)
  401a41:	8b 44 24 20          	mov    0x20(%rsp),%eax
  401a45:	69 c0 f1 71 00 00    	imul   $0x71f1,%eax,%eax
  401a4b:	89 44 24 20          	mov    %eax,0x20(%rsp)
  401a4f:	8b 44 24 1c          	mov    0x1c(%rsp),%eax
  401a53:	69 c0 2e 90 00 00    	imul   $0x902e,%eax,%eax
  401a59:	89 44 24 1c          	mov    %eax,0x1c(%rsp)
  401a5d:	8b 44 24 20          	mov    0x20(%rsp),%eax
  401a61:	69 c0 34 dc 00 00    	imul   $0xdc34,%eax,%eax
  401a67:	89 44 24 20          	mov    %eax,0x20(%rsp)
  401a6b:	8b 44 24 1c          	mov    0x1c(%rsp),%eax
  401a6f:	69 c0 32 2f 00 00    	imul   $0x2f32,%eax,%eax
  401a75:	89 44 24 1c          	mov    %eax,0x1c(%rsp)
  401a79:	8b 44 24 10          	mov    0x10(%rsp),%eax
  401a7d:	69 c0 4f 78 00 00    	imul   $0x784f,%eax,%eax
  401a83:	89 44 24 10          	mov    %eax,0x10(%rsp)
  401a87:	8b 44 24 1c          	mov    0x1c(%rsp),%eax
  401a8b:	69 c0 5d 9a 00 00    	imul   $0x9a5d,%eax,%eax
  401a91:	89 44 24 1c          	mov    %eax,0x1c(%rsp)
  401a95:	8b 44 24 10          	mov    0x10(%rsp),%eax
  401a99:	69 c0 7a 0b 00 00    	imul   $0xb7a,%eax,%eax
  401a9f:	89 44 24 10          	mov    %eax,0x10(%rsp)
  401aa3:	8b 44 24 24          	mov    0x24(%rsp),%eax
  401aa7:	69 c0 28 da 00 00    	imul   $0xda28,%eax,%eax
  401aad:	89 44 24 24          	mov    %eax,0x24(%rsp)
  401ab1:	8b 04 24             	mov    (%rsp),%eax
  401ab4:	69 c0 8c e8 00 00    	imul   $0xe88c,%eax,%eax
  401aba:	89 04 24             	mov    %eax,(%rsp)
  401abd:	8b 44 24 1c          	mov    0x1c(%rsp),%eax
  401ac1:	69 c0 a8 18 00 00    	imul   $0x18a8,%eax,%eax
  401ac7:	89 44 24 1c          	mov    %eax,0x1c(%rsp)
  401acb:	8b 44 24 14          	mov    0x14(%rsp),%eax
  401acf:	69 c0 4d 90 00 00    	imul   $0x904d,%eax,%eax
  401ad5:	89 44 24 14          	mov    %eax,0x14(%rsp)
  401ad9:	8b 04 24             	mov    (%rsp),%eax
  401adc:	69 c0 9b 85 00 00    	imul   $0x859b,%eax,%eax
  401ae2:	89 04 24             	mov    %eax,(%rsp)
  401ae5:	8b 44 24 0c          	mov    0xc(%rsp),%eax
  401ae9:	69 c0 dd 55 00 00    	imul   $0x55dd,%eax,%eax
  401aef:	89 44 24 0c          	mov    %eax,0xc(%rsp)
  401af3:	8b 44 24 08          	mov    0x8(%rsp),%eax
  401af7:	69 c0 6a 75 00 00    	imul   $0x756a,%eax,%eax
  401afd:	89 44 24 08          	mov    %eax,0x8(%rsp)
  401b01:	8b 44 24 14          	mov    0x14(%rsp),%eax
  401b05:	69 c0 7b 4d 00 00    	imul   $0x4d7b,%eax,%eax
  401b0b:	89 44 24 14          	mov    %eax,0x14(%rsp)
  401b0f:	8b 44 24 20          	mov    0x20(%rsp),%eax
  401b13:	69 c0 31 59 00 00    	imul   $0x5931,%eax,%eax
  401b19:	89 44 24 20          	mov    %eax,0x20(%rsp)
  401b1d:	8b 44 24 10          	mov    0x10(%rsp),%eax
  401b21:	69 c0 b3 86 00 00    	imul   $0x86b3,%eax,%eax
  401b27:	89 44 24 10          	mov    %eax,0x10(%rsp)
  401b2b:	8b 44 24 18          	mov    0x18(%rsp),%eax
  401b2f:	69 c0 7b ef 00 00    	imul   $0xef7b,%eax,%eax
  401b35:	89 44 24 18          	mov    %eax,0x18(%rsp)
  401b39:	8b 44 24 14          	mov    0x14(%rsp),%eax
  401b3d:	69 c0 34 3f 00 00    	imul   $0x3f34,%eax,%eax
  401b43:	89 44 24 14          	mov    %eax,0x14(%rsp)
  401b47:	8b 44 24 04          	mov    0x4(%rsp),%eax
  401b4b:	69 c0 b7 0e 00 00    	imul   $0xeb7,%eax,%eax
  401b51:	89 44 24 04          	mov    %eax,0x4(%rsp)
  401b55:	8b 04 24             	mov    (%rsp),%eax
  401b58:	69 c0 f3 aa 00 00    	imul   $0xaaf3,%eax,%eax
  401b5e:	89 04 24             	mov    %eax,(%rsp)
  401b61:	8b 44 24 20          	mov    0x20(%rsp),%eax
  401b65:	69 c0 83 48 00 00    	imul   $0x4883,%eax,%eax
  401b6b:	89 44 24 20          	mov    %eax,0x20(%rsp)
  401b6f:	8b 44 24 14          	mov    0x14(%rsp),%eax
  401b73:	69 c0 7a 3b 00 00    	imul   $0x3b7a,%eax,%eax
  401b79:	89 44 24 14          	mov    %eax,0x14(%rsp)
  401b7d:	8b 44 24 20          	mov    0x20(%rsp),%eax
  401b81:	69 c0 f5 6d 00 00    	imul   $0x6df5,%eax,%eax
  401b87:	89 44 24 20          	mov    %eax,0x20(%rsp)
  401b8b:	8b 44 24 14          	mov    0x14(%rsp),%eax
  401b8f:	69 c0 36 f2 00 00    	imul   $0xf236,%eax,%eax
  401b95:	89 44 24 14          	mov    %eax,0x14(%rsp)
  401b99:	8b 44 24 1c          	mov    0x1c(%rsp),%eax
  401b9d:	69 c0 ea c0 00 00    	imul   $0xc0ea,%eax,%eax
  401ba3:	89 44 24 1c          	mov    %eax,0x1c(%rsp)
  401ba7:	8b 44 24 14          	mov    0x14(%rsp),%eax
  401bab:	69 c0 1c d3 00 00    	imul   $0xd31c,%eax,%eax
  401bb1:	89 44 24 14          	mov    %eax,0x14(%rsp)
  401bb5:	8b 44 24 04          	mov    0x4(%rsp),%eax
  401bb9:	69 c0 4b ca 00 00    	imul   $0xca4b,%eax,%eax
  401bbf:	89 44 24 04          	mov    %eax,0x4(%rsp)
  401bc3:	8b 44 24 0c          	mov    0xc(%rsp),%eax
  401bc7:	69 c0 26 4a 00 00    	imul   $0x4a26,%eax,%eax
  401bcd:	89 44 24 0c          	mov    %eax,0xc(%rsp)
  401bd1:	8b 44 24 04          	mov    0x4(%rsp),%eax
  401bd5:	69 c0 d7 5c 00 00    	imul   $0x5cd7,%eax,%eax
  401bdb:	89 44 24 04          	mov    %eax,0x4(%rsp)
  401bdf:	8b 44 24 04          	mov    0x4(%rsp),%eax
  401be3:	69 c0 a2 d8 00 00    	imul   $0xd8a2,%eax,%eax
  401be9:	89 44 24 04          	mov    %eax,0x4(%rsp)
  401bed:	8b 44 24 08          	mov    0x8(%rsp),%eax
  401bf1:	69 c0 0d 57 00 00    	imul   $0x570d,%eax,%eax
  401bf7:	89 44 24 08          	mov    %eax,0x8(%rsp)
  401bfb:	8b 44 24 18          	mov    0x18(%rsp),%eax
  401bff:	69 c0 69 9f 00 00    	imul   $0x9f69,%eax,%eax
  401c05:	89 44 24 18          	mov    %eax,0x18(%rsp)
  401c09:	8b 44 24 24          	mov    0x24(%rsp),%eax
  401c0d:	69 c0 3e c2 00 00    	imul   $0xc23e,%eax,%eax
  401c13:	89 44 24 24          	mov    %eax,0x24(%rsp)
  401c17:	8b 44 24 14          	mov    0x14(%rsp),%eax
  401c1b:	69 c0 35 65 00 00    	imul   $0x6535,%eax,%eax
  401c21:	89 44 24 14          	mov    %eax,0x14(%rsp)
  401c25:	8b 44 24 0c          	mov    0xc(%rsp),%eax
  401c29:	69 c0 20 96 00 00    	imul   $0x9620,%eax,%eax
  401c2f:	89 44 24 0c          	mov    %eax,0xc(%rsp)
  401c33:	8b 44 24 0c          	mov    0xc(%rsp),%eax
  401c37:	69 c0 0a 7a 00 00    	imul   $0x7a0a,%eax,%eax
  401c3d:	89 44 24 0c          	mov    %eax,0xc(%rsp)
  401c41:	8b 44 24 08          	mov    0x8(%rsp),%eax
  401c45:	69 c0 97 c6 00 00    	imul   $0xc697,%eax,%eax
  401c4b:	89 44 24 08          	mov    %eax,0x8(%rsp)
  401c4f:	8b 44 24 08          	mov    0x8(%rsp),%eax
  401c53:	69 c0 4f 01 00 00    	imul   $0x14f,%eax,%eax
  401c59:	89 44 24 08          	mov    %eax,0x8(%rsp)
  401c5d:	8b 44 24 1c          	mov    0x1c(%rsp),%eax
  401c61:	69 c0 8b d9 00 00    	imul   $0xd98b,%eax,%eax
  401c67:	89 44 24 1c          	mov    %eax,0x1c(%rsp)
  401c6b:	8b 44 24 04          	mov    0x4(%rsp),%eax
  401c6f:	69 c0 29 bb 00 00    	imul   $0xbb29,%eax,%eax
  401c75:	89 44 24 04          	mov    %eax,0x4(%rsp)
  401c79:	8b 44 24 08          	mov    0x8(%rsp),%eax
  401c7d:	69 c0 08 76 00 00    	imul   $0x7608,%eax,%eax
  401c83:	89 44 24 08          	mov    %eax,0x8(%rsp)
  401c87:	8b 44 24 10          	mov    0x10(%rsp),%eax
  401c8b:	69 c0 fa e0 00 00    	imul   $0xe0fa,%eax,%eax
  401c91:	89 44 24 10          	mov    %eax,0x10(%rsp)
  401c95:	8b 44 24 24          	mov    0x24(%rsp),%eax
  401c99:	69 c0 3f b7 00 00    	imul   $0xb73f,%eax,%eax
  401c9f:	89 44 24 24          	mov    %eax,0x24(%rsp)
  401ca3:	8b 44 24 04          	mov    0x4(%rsp),%eax
  401ca7:	69 c0 09 80 00 00    	imul   $0x8009,%eax,%eax
  401cad:	89 44 24 04          	mov    %eax,0x4(%rsp)
  401cb1:	8b 44 24 20          	mov    0x20(%rsp),%eax
  401cb5:	69 c0 c2 c2 00 00    	imul   $0xc2c2,%eax,%eax
  401cbb:	89 44 24 20          	mov    %eax,0x20(%rsp)
  401cbf:	8b 04 24             	mov    (%rsp),%eax
  401cc2:	69 c0 20 ca 00 00    	imul   $0xca20,%eax,%eax
  401cc8:	89 04 24             	mov    %eax,(%rsp)
  401ccb:	8b 44 24 24          	mov    0x24(%rsp),%eax
  401ccf:	69 c0 02 b8 00 00    	imul   $0xb802,%eax,%eax
  401cd5:	89 44 24 24          	mov    %eax,0x24(%rsp)
  401cd9:	8b 44 24 08          	mov    0x8(%rsp),%eax
  401cdd:	69 c0 58 60 00 00    	imul   $0x6058,%eax,%eax
  401ce3:	89 44 24 08          	mov    %eax,0x8(%rsp)
  401ce7:	8b 04 24             	mov    (%rsp),%eax
  401cea:	69 c0 26 48 00 00    	imul   $0x4826,%eax,%eax
  401cf0:	89 04 24             	mov    %eax,(%rsp)
  401cf3:	8b 44 24 08          	mov    0x8(%rsp),%eax
  401cf7:	69 c0 35 4b 00 00    	imul   $0x4b35,%eax,%eax
  401cfd:	89 44 24 08          	mov    %eax,0x8(%rsp)
  401d01:	8b 44 24 14          	mov    0x14(%rsp),%eax
  401d05:	69 c0 b7 d5 00 00    	imul   $0xd5b7,%eax,%eax
  401d0b:	89 44 24 14          	mov    %eax,0x14(%rsp)
  401d0f:	8b 44 24 20          	mov    0x20(%rsp),%eax
  401d13:	69 c0 ea bc 00 00    	imul   $0xbcea,%eax,%eax
  401d19:	89 44 24 20          	mov    %eax,0x20(%rsp)
  401d1d:	8b 44 24 1c          	mov    0x1c(%rsp),%eax
  401d21:	69 c0 c4 7a 00 00    	imul   $0x7ac4,%eax,%eax
  401d27:	89 44 24 1c          	mov    %eax,0x1c(%rsp)
  401d2b:	8b 44 24 14          	mov    0x14(%rsp),%eax
  401d2f:	69 c0 da d0 00 00    	imul   $0xd0da,%eax,%eax
  401d35:	89 44 24 14          	mov    %eax,0x14(%rsp)
  401d39:	8b 44 24 04          	mov    0x4(%rsp),%eax
  401d3d:	69 c0 be b1 00 00    	imul   $0xb1be,%eax,%eax
  401d43:	89 44 24 04          	mov    %eax,0x4(%rsp)
  401d47:	8b 44 24 08          	mov    0x8(%rsp),%eax
  401d4b:	69 c0 c4 ee 00 00    	imul   $0xeec4,%eax,%eax
  401d51:	89 44 24 08          	mov    %eax,0x8(%rsp)
  401d55:	8b 44 24 18          	mov    0x18(%rsp),%eax
  401d59:	69 c0 49 1a 00 00    	imul   $0x1a49,%eax,%eax
  401d5f:	89 44 24 18          	mov    %eax,0x18(%rsp)
  401d63:	8b 44 24 24          	mov    0x24(%rsp),%eax
  401d67:	69 c0 1a 68 00 00    	imul   $0x681a,%eax,%eax
  401d6d:	89 44 24 24          	mov    %eax,0x24(%rsp)
  401d71:	8b 44 24 20          	mov    0x20(%rsp),%eax
  401d75:	69 c0 df fa 00 00    	imul   $0xfadf,%eax,%eax
  401d7b:	89 44 24 20          	mov    %eax,0x20(%rsp)
  401d7f:	8b 44 24 18          	mov    0x18(%rsp),%eax
  401d83:	69 c0 a0 e5 00 00    	imul   $0xe5a0,%eax,%eax
  401d89:	89 44 24 18          	mov    %eax,0x18(%rsp)
  401d8d:	8b 44 24 10          	mov    0x10(%rsp),%eax
  401d91:	69 c0 d0 40 00 00    	imul   $0x40d0,%eax,%eax
  401d97:	89 44 24 10          	mov    %eax,0x10(%rsp)
  401d9b:	8b 44 24 20          	mov    0x20(%rsp),%eax
  401d9f:	69 c0 72 d7 00 00    	imul   $0xd772,%eax,%eax
  401da5:	89 44 24 20          	mov    %eax,0x20(%rsp)
  401da9:	8b 44 24 18          	mov    0x18(%rsp),%eax
  401dad:	69 c0 49 19 00 00    	imul   $0x1949,%eax,%eax
  401db3:	89 44 24 18          	mov    %eax,0x18(%rsp)
  401db7:	8b 44 24 14          	mov    0x14(%rsp),%eax
  401dbb:	69 c0 12 73 00 00    	imul   $0x7312,%eax,%eax
  401dc1:	89 44 24 14          	mov    %eax,0x14(%rsp)
  401dc5:	8b 44 24 04          	mov    0x4(%rsp),%eax
  401dc9:	69 c0 58 fd 00 00    	imul   $0xfd58,%eax,%eax
  401dcf:	89 44 24 04          	mov    %eax,0x4(%rsp)
  401dd3:	8b 44 24 14          	mov    0x14(%rsp),%eax
  401dd7:	69 c0 b5 3f 00 00    	imul   $0x3fb5,%eax,%eax
  401ddd:	89 44 24 14          	mov    %eax,0x14(%rsp)
  401de1:	8b 44 24 1c          	mov    0x1c(%rsp),%eax
  401de5:	69 c0 87 83 00 00    	imul   $0x8387,%eax,%eax
  401deb:	89 44 24 1c          	mov    %eax,0x1c(%rsp)
  401def:	8b 44 24 24          	mov    0x24(%rsp),%eax
  401df3:	69 c0 5d 6f 00 00    	imul   $0x6f5d,%eax,%eax
  401df9:	89 44 24 24          	mov    %eax,0x24(%rsp)
  401dfd:	8b 44 24 1c          	mov    0x1c(%rsp),%eax
  401e01:	69 c0 d8 ba 00 00    	imul   $0xbad8,%eax,%eax
  401e07:	89 44 24 1c          	mov    %eax,0x1c(%rsp)
  401e0b:	8b 44 24 08          	mov    0x8(%rsp),%eax
  401e0f:	69 c0 9a 52 00 00    	imul   $0x529a,%eax,%eax
  401e15:	89 44 24 08          	mov    %eax,0x8(%rsp)
  401e19:	b8 00 00 00 00       	mov    $0x0,%eax
  401e1e:	ba 00 00 00 00       	mov    $0x0,%edx
  401e23:	83 f8 09             	cmp    $0x9,%eax
  401e26:	77 0c                	ja     401e34 <scramble+0x430>
  401e28:	89 c1                	mov    %eax,%ecx
  401e2a:	8b 0c 8c             	mov    (%rsp,%rcx,4),%ecx
  401e2d:	01 ca                	add    %ecx,%edx
  401e2f:	83 c0 01             	add    $0x1,%eax
  401e32:	eb ef                	jmp    401e23 <scramble+0x41f>
  401e34:	48 8b 44 24 28       	mov    0x28(%rsp),%rax
  401e39:	64 48 33 04 25 28 00 	xor    %fs:0x28,%rax
  401e40:	00 00 
  401e42:	75 07                	jne    401e4b <scramble+0x447>
  401e44:	89 d0                	mov    %edx,%eax
  401e46:	48 83 c4 38          	add    $0x38,%rsp
  401e4a:	c3                   	ret    
  401e4b:	e8 c1 08 00 00       	call   402711 <__stack_chk_fail>

0000000000401e50 <getbuf>:
  401e50:	f3 0f 1e fa          	endbr64 
  401e54:	48 83 ec 38          	sub    $0x38,%rsp
  401e58:	48 89 e7             	mov    %rsp,%rdi    
  401e5b:	e8 cd 03 00 00       	call   40222d <Gets>
  401e60:	b8 01 00 00 00       	mov    $0x1,%eax
  401e65:	48 83 c4 38          	add    $0x38,%rsp
  401e69:	c3                   	ret    

0000000000401e6a <getbuf_withcanary>:
  401e6a:	f3 0f 1e fa          	endbr64 
  401e6e:	55                   	push   %rbp
  401e6f:	48 89 e5             	mov    %rsp,%rbp
  401e72:	48 81 ec 90 01 00 00 	sub    $0x190,%rsp
  401e79:	64 48 8b 04 25 28 00 	mov    %fs:0x28,%rax
  401e80:	00 00 
  401e82:	48 89 45 f8          	mov    %rax,-0x8(%rbp)
  401e86:	31 c0                	xor    %eax,%eax
  401e88:	c7 85 74 ff ff ff 00 	movl   $0x0,-0x8c(%rbp)
  401e8f:	00 00 00 
  401e92:	8b 85 74 ff ff ff    	mov    -0x8c(%rbp),%eax
  401e98:	89 85 70 ff ff ff    	mov    %eax,-0x90(%rbp)
  401e9e:	48 8d 85 70 fe ff ff 	lea    -0x190(%rbp),%rax
  401ea5:	48 89 c7             	mov    %rax,%rdi
  401ea8:	e8 80 03 00 00       	call   40222d <Gets>
  401ead:	8b 85 70 ff ff ff    	mov    -0x90(%rbp),%eax
  401eb3:	48 63 d0             	movslq %eax,%rdx
  401eb6:	48 8d 85 70 fe ff ff 	lea    -0x190(%rbp),%rax
  401ebd:	48 8d 88 08 01 00 00 	lea    0x108(%rax),%rcx
  401ec4:	48 8d 85 70 fe ff ff 	lea    -0x190(%rbp),%rax
  401ecb:	48 89 ce             	mov    %rcx,%rsi
  401ece:	48 89 c7             	mov    %rax,%rdi
  401ed1:	e8 9a f4 ff ff       	call   401370 <memcpy@plt>
  401ed6:	8b 85 74 ff ff ff    	mov    -0x8c(%rbp),%eax
  401edc:	48 63 d0             	movslq %eax,%rdx
  401edf:	48 8d 85 70 fe ff ff 	lea    -0x190(%rbp),%rax
  401ee6:	48 8d 8d 70 fe ff ff 	lea    -0x190(%rbp),%rcx
  401eed:	48 81 c1 08 01 00 00 	add    $0x108,%rcx
  401ef4:	48 89 c6             	mov    %rax,%rsi
  401ef7:	48 89 cf             	mov    %rcx,%rdi
  401efa:	e8 71 f4 ff ff       	call   401370 <memcpy@plt>
  401eff:	b8 01 00 00 00       	mov    $0x1,%eax
  401f04:	48 8b 55 f8          	mov    -0x8(%rbp),%rdx
  401f08:	64 48 2b 14 25 28 00 	sub    %fs:0x28,%rdx
  401f0f:	00 00 
  401f11:	74 05                	je     401f18 <getbuf_withcanary+0xae>
  401f13:	e8 f9 07 00 00       	call   402711 <__stack_chk_fail>
  401f18:	c9                   	leave  
  401f19:	c3                   	ret    

0000000000401f1a <touch1>:
  401f1a:	f3 0f 1e fa          	endbr64 
  401f1e:	50                   	push   %rax
  401f1f:	58                   	pop    %rax
  401f20:	48 83 ec 08          	sub    $0x8,%rsp
  401f24:	c7 05 ee 55 00 00 01 	movl   $0x1,0x55ee(%rip)        # 40751c <vlevel>
  401f2b:	00 00 00 
  401f2e:	48 8d 3d e1 23 00 00 	lea    0x23e1(%rip),%rdi        # 404316 <_IO_stdin_used+0x316>
  401f35:	e8 76 f3 ff ff       	call   4012b0 <puts@plt>
  401f3a:	bf 01 00 00 00       	mov    $0x1,%edi
  401f3f:	e8 5b 05 00 00       	call   40249f <validate>
  401f44:	bf 00 00 00 00       	mov    $0x0,%edi
  401f49:	e8 c2 f4 ff ff       	call   401410 <exit@plt>

0000000000401f4e <touch2>:
  401f4e:	f3 0f 1e fa          	endbr64 
  401f52:	50                   	push   %rax
  401f53:	58                   	pop    %rax
  401f54:	48 83 ec 08          	sub    $0x8,%rsp
  401f58:	89 fa                	mov    %edi,%edx
  401f5a:	c7 05 b8 55 00 00 02 	movl   $0x2,0x55b8(%rip)        # 40751c <vlevel>
  401f61:	00 00 00 
  401f64:	39 3d ba 55 00 00    	cmp    %edi,0x55ba(%rip)        # 407524 <cookie>
  401f6a:	74 2a                	je     401f96 <touch2+0x48>
  401f6c:	48 8d 35 ed 23 00 00 	lea    0x23ed(%rip),%rsi        # 404360 <_IO_stdin_used+0x360>
  401f73:	bf 01 00 00 00       	mov    $0x1,%edi
  401f78:	b8 00 00 00 00       	mov    $0x0,%eax
  401f7d:	e8 3e f4 ff ff       	call   4013c0 <__printf_chk@plt>
  401f82:	bf 02 00 00 00       	mov    $0x2,%edi
  401f87:	e8 ee 05 00 00       	call   40257a <fail>
  401f8c:	bf 00 00 00 00       	mov    $0x0,%edi
  401f91:	e8 7a f4 ff ff       	call   401410 <exit@plt>
  401f96:	48 8d 35 9b 23 00 00 	lea    0x239b(%rip),%rsi        # 404338 <_IO_stdin_used+0x338>
  401f9d:	bf 01 00 00 00       	mov    $0x1,%edi
  401fa2:	b8 00 00 00 00       	mov    $0x0,%eax
  401fa7:	e8 14 f4 ff ff       	call   4013c0 <__printf_chk@plt>
  401fac:	bf 02 00 00 00       	mov    $0x2,%edi
  401fb1:	e8 e9 04 00 00       	call   40249f <validate>
  401fb6:	eb d4                	jmp    401f8c <touch2+0x3e>

0000000000401fb8 <hexmatch>:
  401fb8:	f3 0f 1e fa          	endbr64 
  401fbc:	41 55                	push   %r13
  401fbe:	41 54                	push   %r12
  401fc0:	55                   	push   %rbp
  401fc1:	53                   	push   %rbx
  401fc2:	48 81 ec 88 00 00 00 	sub    $0x88,%rsp
  401fc9:	89 fd                	mov    %edi,%ebp #cookie
  401fcb:	48 89 f3             	mov    %rsi,%rbx #sval
  401fce:	41 bc 28 00 00 00    	mov    $0x28,%r12d
  401fd4:	64 49 8b 04 24       	mov    %fs:(%r12),%rax
  401fd9:	48 89 44 24 78       	mov    %rax,0x78(%rsp)
  401fde:	31 c0                	xor    %eax,%eax
  401fe0:	e8 ab f3 ff ff       	call   401390 <random@plt>
  401fe5:	48 89 c1             	mov    %rax,%rcx
  401fe8:	48 ba 0b d7 a3 70 3d 	movabs $0xa3d70a3d70a3d70b,%rdx
  401fef:	0a d7 a3 
  401ff2:	48 f7 ea             	imul   %rdx
  401ff5:	48 01 ca             	add    %rcx,%rdx
  401ff8:	48 c1 fa 06          	sar    $0x6,%rdx
  401ffc:	48 89 c8             	mov    %rcx,%rax
  401fff:	48 c1 f8 3f          	sar    $0x3f,%rax
  402003:	48 29 c2             	sub    %rax,%rdx
  402006:	48 8d 04 92          	lea    (%rdx,%rdx,4),%rax
  40200a:	48 8d 04 80          	lea    (%rax,%rax,4),%rax
  40200e:	48 c1 e0 02          	shl    $0x2,%rax
  402012:	48 29 c1             	sub    %rax,%rcx
  402015:	4c 8d 2c 0c          	lea    (%rsp,%rcx,1),%r13
  402019:	41 89 e8             	mov    %ebp,%r8d #cookie
  40201c:	48 8d 0d 10 23 00 00 	lea    0x2310(%rip),%rcx        # 404333 <_IO_stdin_used+0x333>
  402023:	48 c7 c2 ff ff ff ff 	mov    $0xffffffffffffffff,%rdx
  40202a:	be 01 00 00 00       	mov    $0x1,%esi
  40202f:	4c 89 ef             	mov    %r13,%rdi
  402032:	b8 00 00 00 00       	mov    $0x0,%eax
  402037:	e8 14 f4 ff ff       	call   401450 <__sprintf_chk@plt>
  40203c:	ba 09 00 00 00       	mov    $0x9,%edx
  402041:	4c 89 ee             	mov    %r13,%rsi
  402044:	48 89 df             	mov    %rbx,%rdi
  402047:	e8 44 f2 ff ff       	call   401290 <strncmp@plt>
  40204c:	85 c0                	test   %eax,%eax
  40204e:	0f 94 c0             	sete   %al
  402051:	48 8b 5c 24 78       	mov    0x78(%rsp),%rbx
  402056:	64 49 33 1c 24       	xor    %fs:(%r12),%rbx
  40205b:	75 11                	jne    40206e <hexmatch+0xb6>
  40205d:	0f b6 c0             	movzbl %al,%eax
  402060:	48 81 c4 88 00 00 00 	add    $0x88,%rsp
  402067:	5b                   	pop    %rbx
  402068:	5d                   	pop    %rbp
  402069:	41 5c                	pop    %r12
  40206b:	41 5d                	pop    %r13
  40206d:	c3                   	ret    
  40206e:	e8 9e 06 00 00       	call   402711 <__stack_chk_fail>

0000000000402073 <touch3>:
  402073:	f3 0f 1e fa          	endbr64 
  402077:	53                   	push   %rbx
  402078:	48 89 fb             	mov    %rdi,%rbx
  40207b:	c7 05 97 54 00 00 03 	movl   $0x3,0x5497(%rip)        # 40751c <vlevel>
  402082:	00 00 00 
  402085:	48 89 fe             	mov    %rdi,%rsi
  402088:	8b 3d 96 54 00 00    	mov    0x5496(%rip),%edi        # <cookie> 0x3177de01
  40208e:	e8 25 ff ff ff       	call   401fb8 <hexmatch>
  402093:	85 c0                	test   %eax,%eax
  402095:	74 2d                	je     4020c4 <touch3+0x51>
  402097:	48 89 da             	mov    %rbx,%rdx
  40209a:	48 8d 35 e7 22 00 00 	lea    0x22e7(%rip),%rsi        # 404388 <_IO_stdin_used+0x388>
  4020a1:	bf 01 00 00 00       	mov    $0x1,%edi
  4020a6:	b8 00 00 00 00       	mov    $0x0,%eax
  4020ab:	e8 10 f3 ff ff       	call   4013c0 <__printf_chk@plt>
  4020b0:	bf 03 00 00 00       	mov    $0x3,%edi
  4020b5:	e8 e5 03 00 00       	call   40249f <validate>
  4020ba:	bf 00 00 00 00       	mov    $0x0,%edi
  4020bf:	e8 4c f3 ff ff       	call   401410 <exit@plt>
  4020c4:	48 89 da             	mov    %rbx,%rdx
  4020c7:	48 8d 35 e2 22 00 00 	lea    0x22e2(%rip),%rsi        # 4043b0 <_IO_stdin_used+0x3b0>
  4020ce:	bf 01 00 00 00       	mov    $0x1,%edi
  4020d3:	b8 00 00 00 00       	mov    $0x0,%eax
  4020d8:	e8 e3 f2 ff ff       	call   4013c0 <__printf_chk@plt>
  4020dd:	bf 03 00 00 00       	mov    $0x3,%edi
  4020e2:	e8 93 04 00 00       	call   40257a <fail>
  4020e7:	eb d1                	jmp    4020ba <touch3+0x47>

00000000004020e9 <test>:
  4020e9:	f3 0f 1e fa          	endbr64 
  4020ed:	48 83 ec 08          	sub    $0x8,%rsp
  4020f1:	b8 00 00 00 00       	mov    $0x0,%eax
  4020f6:	e8 55 fd ff ff       	call   401e50 <getbuf>
  4020fb:	89 c2                	mov    %eax,%edx
  4020fd:	48 89 e0             	mov    %rsp,%rax
  402100:	48 83 e0 0f          	and    $0xf,%rax
  402104:	74 07                	je     40210d <aligned4>
  402106:	b9 00 00 00 00       	mov    $0x0,%ecx
  40210b:	eb 05                	jmp    402112 <done4>

000000000040210d <aligned4>:
  40210d:	b9 01 00 00 00       	mov    $0x1,%ecx

0000000000402112 <done4>:
  402112:	85 c9                	test   %ecx,%ecx
  402114:	75 23                	jne    402139 <done4+0x27>
  402116:	48 83 ec 08          	sub    $0x8,%rsp
  40211a:	48 8d 35 b7 22 00 00 	lea    0x22b7(%rip),%rsi        # 4043d8 <_IO_stdin_used+0x3d8>
  402121:	bf 01 00 00 00       	mov    $0x1,%edi
  402126:	b8 00 00 00 00       	mov    $0x0,%eax
  40212b:	e8 90 f2 ff ff       	call   4013c0 <__printf_chk@plt>
  402130:	48 83 c4 08          	add    $0x8,%rsp
  402134:	48 83 c4 08          	add    $0x8,%rsp
  402138:	c3                   	ret    
  402139:	48 8d 35 98 22 00 00 	lea    0x2298(%rip),%rsi        # 4043d8 <_IO_stdin_used+0x3d8>
  402140:	bf 01 00 00 00       	mov    $0x1,%edi
  402145:	b8 00 00 00 00       	mov    $0x0,%eax
  40214a:	e8 71 f2 ff ff       	call   4013c0 <__printf_chk@plt>
  40214f:	eb e3                	jmp    402134 <done4+0x22>

0000000000402151 <test2>:
  402151:	f3 0f 1e fa          	endbr64 
  402155:	48 83 ec 08          	sub    $0x8,%rsp
  402159:	b8 00 00 00 00       	mov    $0x0,%eax
  40215e:	e8 07 fd ff ff       	call   401e6a <getbuf_withcanary>
  402163:	89 c2                	mov    %eax,%edx
  402165:	48 8d 35 94 22 00 00 	lea    0x2294(%rip),%rsi        # 404400 <_IO_stdin_used+0x400>
  40216c:	bf 01 00 00 00       	mov    $0x1,%edi
  402171:	b8 00 00 00 00       	mov    $0x0,%eax
  402176:	e8 45 f2 ff ff       	call   4013c0 <__printf_chk@plt>
  40217b:	48 83 c4 08          	add    $0x8,%rsp
  40217f:	c3                   	ret    

0000000000402180 <save_char>:
  402180:	8b 05 be 5f 00 00    	mov    0x5fbe(%rip),%eax        # 408144 <gets_cnt>
  402186:	3d ff 03 00 00       	cmp    $0x3ff,%eax
  40218b:	7f 4a                	jg     4021d7 <save_char+0x57>
  40218d:	89 f9                	mov    %edi,%ecx
  40218f:	c0 e9 04             	shr    $0x4,%cl
  402192:	8d 14 40             	lea    (%rax,%rax,2),%edx
  402195:	4c 8d 05 d4 25 00 00 	lea    0x25d4(%rip),%r8        # 404770 <trans_char>
  40219c:	83 e1 0f             	and    $0xf,%ecx
  40219f:	45 0f b6 0c 08       	movzbl (%r8,%rcx,1),%r9d
  4021a4:	48 8d 0d 95 53 00 00 	lea    0x5395(%rip),%rcx        # 407540 <gets_buf>
  4021ab:	48 63 f2             	movslq %edx,%rsi
  4021ae:	44 88 0c 31          	mov    %r9b,(%rcx,%rsi,1)
  4021b2:	8d 72 01             	lea    0x1(%rdx),%esi
  4021b5:	83 e7 0f             	and    $0xf,%edi
  4021b8:	41 0f b6 3c 38       	movzbl (%r8,%rdi,1),%edi
  4021bd:	48 63 f6             	movslq %esi,%rsi
  4021c0:	40 88 3c 31          	mov    %dil,(%rcx,%rsi,1)
  4021c4:	83 c2 02             	add    $0x2,%edx
  4021c7:	48 63 d2             	movslq %edx,%rdx
  4021ca:	c6 04 11 20          	movb   $0x20,(%rcx,%rdx,1)
  4021ce:	83 c0 01             	add    $0x1,%eax
  4021d1:	89 05 6d 5f 00 00    	mov    %eax,0x5f6d(%rip)        # 408144 <gets_cnt>
  4021d7:	c3                   	ret    

00000000004021d8 <save_term>:
  4021d8:	8b 05 66 5f 00 00    	mov    0x5f66(%rip),%eax        # 408144 <gets_cnt>
  4021de:	8d 04 40             	lea    (%rax,%rax,2),%eax
  4021e1:	48 98                	cltq   
  4021e3:	48 8d 15 56 53 00 00 	lea    0x5356(%rip),%rdx        # 407540 <gets_buf>
  4021ea:	c6 04 02 00          	movb   $0x0,(%rdx,%rax,1)
  4021ee:	c3                   	ret    

00000000004021ef <check_fail>:
  4021ef:	f3 0f 1e fa          	endbr64 
  4021f3:	50                   	push   %rax
  4021f4:	58                   	pop    %rax
  4021f5:	48 83 ec 08          	sub    $0x8,%rsp
  4021f9:	0f be 15 48 5f 00 00 	movsbl 0x5f48(%rip),%edx        # 408148 <target_prefix>
  402200:	4c 8d 05 39 53 00 00 	lea    0x5339(%rip),%r8        # 407540 <gets_buf>
  402207:	8b 0d 0b 53 00 00    	mov    0x530b(%rip),%ecx        # 407518 <check_level>
  40220d:	48 8d 35 1a 22 00 00 	lea    0x221a(%rip),%rsi        # 40442e <_IO_stdin_used+0x42e>
  402214:	bf 01 00 00 00       	mov    $0x1,%edi
  402219:	b8 00 00 00 00       	mov    $0x0,%eax
  40221e:	e8 9d f1 ff ff       	call   4013c0 <__printf_chk@plt>
  402223:	bf 01 00 00 00       	mov    $0x1,%edi
  402228:	e8 e3 f1 ff ff       	call   401410 <exit@plt>

000000000040222d <Gets>:
  40222d:	f3 0f 1e fa          	endbr64 
  402231:	41 54                	push   %r12
  402233:	55                   	push   %rbp
  402234:	53                   	push   %rbx
  402235:	49 89 fc             	mov    %rdi,%r12
  402238:	c7 05 02 5f 00 00 00 	movl   $0x0,0x5f02(%rip)        # 408144 <gets_cnt>
  40223f:	00 00 00 
  402242:	48 89 fb             	mov    %rdi,%rbx
  402245:	48 8b 3d c4 52 00 00 	mov    0x52c4(%rip),%rdi        # 407510 <infile>
  40224c:	e8 ef f1 ff ff       	call   401440 <getc@plt>
  402251:	83 f8 ff             	cmp    $0xffffffff,%eax
  402254:	74 18                	je     40226e <Gets+0x41>
  402256:	83 f8 0a             	cmp    $0xa,%eax
  402259:	74 13                	je     40226e <Gets+0x41>
  40225b:	48 8d 6b 01          	lea    0x1(%rbx),%rbp
  40225f:	88 03                	mov    %al,(%rbx)
  402261:	0f b6 f8             	movzbl %al,%edi
  402264:	e8 17 ff ff ff       	call   402180 <save_char>
  402269:	48 89 eb             	mov    %rbp,%rbx
  40226c:	eb d7                	jmp    402245 <Gets+0x18>
  40226e:	c6 03 00             	movb   $0x0,(%rbx)
  402271:	b8 00 00 00 00       	mov    $0x0,%eax
  402276:	e8 5d ff ff ff       	call   4021d8 <save_term>
  40227b:	4c 89 e0             	mov    %r12,%rax
  40227e:	5b                   	pop    %rbx
  40227f:	5d                   	pop    %rbp
  402280:	41 5c                	pop    %r12
  402282:	c3                   	ret    

0000000000402283 <notify_server>:
  402283:	f3 0f 1e fa          	endbr64 
  402287:	55                   	push   %rbp
  402288:	53                   	push   %rbx
  402289:	4c 8d 9c 24 00 c0 ff 	lea    -0x4000(%rsp),%r11
  402290:	ff 
  402291:	48 81 ec 00 10 00 00 	sub    $0x1000,%rsp
  402298:	48 83 0c 24 00       	orq    $0x0,(%rsp)
  40229d:	4c 39 dc             	cmp    %r11,%rsp
  4022a0:	75 ef                	jne    402291 <notify_server+0xe>
  4022a2:	48 83 ec 18          	sub    $0x18,%rsp
  4022a6:	64 48 8b 04 25 28 00 	mov    %fs:0x28,%rax
  4022ad:	00 00 
  4022af:	48 89 84 24 08 40 00 	mov    %rax,0x4008(%rsp)
  4022b6:	00 
  4022b7:	31 c0                	xor    %eax,%eax
  4022b9:	83 3d 68 52 00 00 00 	cmpl   $0x0,0x5268(%rip)        # 407528 <is_checker>
  4022c0:	0f 85 b7 01 00 00    	jne    40247d <notify_server+0x1fa>
  4022c6:	89 fb                	mov    %edi,%ebx
  4022c8:	81 3d 72 5e 00 00 9c 	cmpl   $0x1f9c,0x5e72(%rip)        # 408144 <gets_cnt>
  4022cf:	1f 00 00 
  4022d2:	7f 18                	jg     4022ec <notify_server+0x69>
  4022d4:	0f be 05 6d 5e 00 00 	movsbl 0x5e6d(%rip),%eax        # 408148 <target_prefix>
  4022db:	83 3d be 51 00 00 00 	cmpl   $0x0,0x51be(%rip)        # 4074a0 <notify>
  4022e2:	74 23                	je     402307 <notify_server+0x84>
  4022e4:	8b 15 36 52 00 00    	mov    0x5236(%rip),%edx        # 407520 <authkey>
  4022ea:	eb 20                	jmp    40230c <notify_server+0x89>
  4022ec:	48 8d 35 65 22 00 00 	lea    0x2265(%rip),%rsi        # 404558 <_IO_stdin_used+0x558>
  4022f3:	bf 01 00 00 00       	mov    $0x1,%edi
  4022f8:	e8 c3 f0 ff ff       	call   4013c0 <__printf_chk@plt>
  4022fd:	bf 01 00 00 00       	mov    $0x1,%edi
  402302:	e8 09 f1 ff ff       	call   401410 <exit@plt>
  402307:	ba ff ff ff ff       	mov    $0xffffffff,%edx
  40230c:	85 db                	test   %ebx,%ebx
  40230e:	0f 84 9b 00 00 00    	je     4023af <notify_server+0x12c>
  402314:	48 8d 2d 2e 21 00 00 	lea    0x212e(%rip),%rbp        # 404449 <_IO_stdin_used+0x449>
  40231b:	48 89 e7             	mov    %rsp,%rdi
  40231e:	48 8d 0d 1b 52 00 00 	lea    0x521b(%rip),%rcx        # 407540 <gets_buf>
  402325:	51                   	push   %rcx
  402326:	56                   	push   %rsi
  402327:	50                   	push   %rax
  402328:	52                   	push   %rdx
  402329:	49 89 e9             	mov    %rbp,%r9
  40232c:	44 8b 05 1d 4e 00 00 	mov    0x4e1d(%rip),%r8d        # 407150 <target_id>
  402333:	48 8d 0d 14 21 00 00 	lea    0x2114(%rip),%rcx        # 40444e <_IO_stdin_used+0x44e>
  40233a:	ba 00 20 00 00       	mov    $0x2000,%edx
  40233f:	be 01 00 00 00       	mov    $0x1,%esi
  402344:	b8 00 00 00 00       	mov    $0x0,%eax
  402349:	e8 02 f1 ff ff       	call   401450 <__sprintf_chk@plt>
  40234e:	48 83 c4 20          	add    $0x20,%rsp
  402352:	83 3d 47 51 00 00 00 	cmpl   $0x0,0x5147(%rip)        # 4074a0 <notify>
  402359:	0f 84 95 00 00 00    	je     4023f4 <notify_server+0x171>
  40235f:	48 89 e1             	mov    %rsp,%rcx
  402362:	4c 8d 8c 24 00 20 00 	lea    0x2000(%rsp),%r9
  402369:	00 
  40236a:	41 b8 00 00 00 00    	mov    $0x0,%r8d
  402370:	48 8b 15 f1 4d 00 00 	mov    0x4df1(%rip),%rdx        # 407168 <lab>
  402377:	48 8b 35 f2 4d 00 00 	mov    0x4df2(%rip),%rsi        # 407170 <course>
  40237e:	48 8b 3d db 4d 00 00 	mov    0x4ddb(%rip),%rdi        # 407160 <user_id>
  402385:	e8 75 12 00 00       	call   4035ff <driver_post>
  40238a:	85 c0                	test   %eax,%eax
  40238c:	78 2d                	js     4023bb <notify_server+0x138>
  40238e:	85 db                	test   %ebx,%ebx
  402390:	74 51                	je     4023e3 <notify_server+0x160>
  402392:	48 8d 3d ef 21 00 00 	lea    0x21ef(%rip),%rdi        # 404588 <_IO_stdin_used+0x588>
  402399:	e8 12 ef ff ff       	call   4012b0 <puts@plt>
  40239e:	48 8d 3d d1 20 00 00 	lea    0x20d1(%rip),%rdi        # 404476 <_IO_stdin_used+0x476>
  4023a5:	e8 06 ef ff ff       	call   4012b0 <puts@plt>
  4023aa:	e9 ce 00 00 00       	jmp    40247d <notify_server+0x1fa>
  4023af:	48 8d 2d 8e 20 00 00 	lea    0x208e(%rip),%rbp        # 404444 <_IO_stdin_used+0x444>
  4023b6:	e9 60 ff ff ff       	jmp    40231b <notify_server+0x98>
  4023bb:	48 8d 94 24 00 20 00 	lea    0x2000(%rsp),%rdx
  4023c2:	00 
  4023c3:	48 8d 35 a0 20 00 00 	lea    0x20a0(%rip),%rsi        # 40446a <_IO_stdin_used+0x46a>
  4023ca:	bf 01 00 00 00       	mov    $0x1,%edi
  4023cf:	b8 00 00 00 00       	mov    $0x0,%eax
  4023d4:	e8 e7 ef ff ff       	call   4013c0 <__printf_chk@plt>
  4023d9:	bf 01 00 00 00       	mov    $0x1,%edi
  4023de:	e8 2d f0 ff ff       	call   401410 <exit@plt>
  4023e3:	48 8d 3d 96 20 00 00 	lea    0x2096(%rip),%rdi        # 404480 <_IO_stdin_used+0x480>
  4023ea:	e8 c1 ee ff ff       	call   4012b0 <puts@plt>
  4023ef:	e9 89 00 00 00       	jmp    40247d <notify_server+0x1fa>
  4023f4:	48 89 ea             	mov    %rbp,%rdx
  4023f7:	48 8d 35 c2 21 00 00 	lea    0x21c2(%rip),%rsi        # 4045c0 <_IO_stdin_used+0x5c0>
  4023fe:	bf 01 00 00 00       	mov    $0x1,%edi
  402403:	b8 00 00 00 00       	mov    $0x0,%eax
  402408:	e8 b3 ef ff ff       	call   4013c0 <__printf_chk@plt>
  40240d:	48 8b 15 4c 4d 00 00 	mov    0x4d4c(%rip),%rdx        # 407160 <user_id>
  402414:	48 8d 35 6c 20 00 00 	lea    0x206c(%rip),%rsi        # 404487 <_IO_stdin_used+0x487>
  40241b:	bf 01 00 00 00       	mov    $0x1,%edi
  402420:	b8 00 00 00 00       	mov    $0x0,%eax
  402425:	e8 96 ef ff ff       	call   4013c0 <__printf_chk@plt>
  40242a:	48 8b 15 3f 4d 00 00 	mov    0x4d3f(%rip),%rdx        # 407170 <course>
  402431:	48 8d 35 5c 20 00 00 	lea    0x205c(%rip),%rsi        # 404494 <_IO_stdin_used+0x494>
  402438:	bf 01 00 00 00       	mov    $0x1,%edi
  40243d:	b8 00 00 00 00       	mov    $0x0,%eax
  402442:	e8 79 ef ff ff       	call   4013c0 <__printf_chk@plt>
  402447:	48 8b 15 1a 4d 00 00 	mov    0x4d1a(%rip),%rdx        # 407168 <lab>
  40244e:	48 8d 35 4b 20 00 00 	lea    0x204b(%rip),%rsi        # 4044a0 <_IO_stdin_used+0x4a0>
  402455:	bf 01 00 00 00       	mov    $0x1,%edi
  40245a:	b8 00 00 00 00       	mov    $0x0,%eax
  40245f:	e8 5c ef ff ff       	call   4013c0 <__printf_chk@plt>
  402464:	48 89 e2             	mov    %rsp,%rdx
  402467:	48 8d 35 3b 20 00 00 	lea    0x203b(%rip),%rsi        # 4044a9 <_IO_stdin_used+0x4a9>
  40246e:	bf 01 00 00 00       	mov    $0x1,%edi
  402473:	b8 00 00 00 00       	mov    $0x0,%eax
  402478:	e8 43 ef ff ff       	call   4013c0 <__printf_chk@plt>
  40247d:	48 8b 84 24 08 40 00 	mov    0x4008(%rsp),%rax
  402484:	00 
  402485:	64 48 33 04 25 28 00 	xor    %fs:0x28,%rax
  40248c:	00 00 
  40248e:	75 0a                	jne    40249a <notify_server+0x217>
  402490:	48 81 c4 18 40 00 00 	add    $0x4018,%rsp
  402497:	5b                   	pop    %rbx
  402498:	5d                   	pop    %rbp
  402499:	c3                   	ret    
  40249a:	e8 72 02 00 00       	call   402711 <__stack_chk_fail>

000000000040249f <validate>:
  40249f:	f3 0f 1e fa          	endbr64 
  4024a3:	53                   	push   %rbx
  4024a4:	89 fb                	mov    %edi,%ebx
  4024a6:	83 3d 7b 50 00 00 00 	cmpl   $0x0,0x507b(%rip)        # 407528 <is_checker>
  4024ad:	74 79                	je     402528 <validate+0x89>
  4024af:	39 3d 67 50 00 00    	cmp    %edi,0x5067(%rip)        # 40751c <vlevel>
  4024b5:	75 39                	jne    4024f0 <validate+0x51>
  4024b7:	8b 15 5b 50 00 00    	mov    0x505b(%rip),%edx        # 407518 <check_level>
  4024bd:	39 fa                	cmp    %edi,%edx
  4024bf:	75 45                	jne    402506 <validate+0x67>
  4024c1:	0f be 0d 80 5c 00 00 	movsbl 0x5c80(%rip),%ecx        # 408148 <target_prefix>
  4024c8:	4c 8d 0d 71 50 00 00 	lea    0x5071(%rip),%r9        # 407540 <gets_buf>
  4024cf:	41 89 f8             	mov    %edi,%r8d
  4024d2:	8b 15 48 50 00 00    	mov    0x5048(%rip),%edx        # 407520 <authkey>
  4024d8:	48 8d 35 31 21 00 00 	lea    0x2131(%rip),%rsi        # 404610 <_IO_stdin_used+0x610>
  4024df:	bf 01 00 00 00       	mov    $0x1,%edi
  4024e4:	b8 00 00 00 00       	mov    $0x0,%eax
  4024e9:	e8 d2 ee ff ff       	call   4013c0 <__printf_chk@plt>
  4024ee:	5b                   	pop    %rbx
  4024ef:	c3                   	ret    
  4024f0:	48 8d 3d be 1f 00 00 	lea    0x1fbe(%rip),%rdi        # 4044b5 <_IO_stdin_used+0x4b5>
  4024f7:	e8 b4 ed ff ff       	call   4012b0 <puts@plt>
  4024fc:	b8 00 00 00 00       	mov    $0x0,%eax
  402501:	e8 e9 fc ff ff       	call   4021ef <check_fail>
  402506:	89 f9                	mov    %edi,%ecx
  402508:	48 8d 35 d9 20 00 00 	lea    0x20d9(%rip),%rsi        # 4045e8 <_IO_stdin_used+0x5e8>
  40250f:	bf 01 00 00 00       	mov    $0x1,%edi
  402514:	b8 00 00 00 00       	mov    $0x0,%eax
  402519:	e8 a2 ee ff ff       	call   4013c0 <__printf_chk@plt>
  40251e:	b8 00 00 00 00       	mov    $0x0,%eax
  402523:	e8 c7 fc ff ff       	call   4021ef <check_fail>
  402528:	39 3d ee 4f 00 00    	cmp    %edi,0x4fee(%rip)        # 40751c <vlevel>
  40252e:	74 1a                	je     40254a <validate+0xab>
  402530:	48 8d 3d 7e 1f 00 00 	lea    0x1f7e(%rip),%rdi        # 4044b5 <_IO_stdin_used+0x4b5>
  402537:	e8 74 ed ff ff       	call   4012b0 <puts@plt>
  40253c:	89 de                	mov    %ebx,%esi
  40253e:	bf 00 00 00 00       	mov    $0x0,%edi
  402543:	e8 3b fd ff ff       	call   402283 <notify_server>
  402548:	eb a4                	jmp    4024ee <validate+0x4f>
  40254a:	0f be 0d f7 5b 00 00 	movsbl 0x5bf7(%rip),%ecx        # 408148 <target_prefix>
  402551:	89 fa                	mov    %edi,%edx
  402553:	48 8d 35 de 20 00 00 	lea    0x20de(%rip),%rsi        # 404638 <_IO_stdin_used+0x638>
  40255a:	bf 01 00 00 00       	mov    $0x1,%edi
  40255f:	b8 00 00 00 00       	mov    $0x0,%eax
  402564:	e8 57 ee ff ff       	call   4013c0 <__printf_chk@plt>
  402569:	89 de                	mov    %ebx,%esi
  40256b:	bf 01 00 00 00       	mov    $0x1,%edi
  402570:	e8 0e fd ff ff       	call   402283 <notify_server>
  402575:	e9 74 ff ff ff       	jmp    4024ee <validate+0x4f>

000000000040257a <fail>:
  40257a:	f3 0f 1e fa          	endbr64 
  40257e:	48 83 ec 08          	sub    $0x8,%rsp
  402582:	83 3d 9f 4f 00 00 00 	cmpl   $0x0,0x4f9f(%rip)        # 407528 <is_checker>
  402589:	75 11                	jne    40259c <fail+0x22>
  40258b:	89 fe                	mov    %edi,%esi
  40258d:	bf 00 00 00 00       	mov    $0x0,%edi
  402592:	e8 ec fc ff ff       	call   402283 <notify_server>
  402597:	48 83 c4 08          	add    $0x8,%rsp
  40259b:	c3                   	ret    
  40259c:	b8 00 00 00 00       	mov    $0x0,%eax
  4025a1:	e8 49 fc ff ff       	call   4021ef <check_fail>

00000000004025a6 <bushandler>:
  4025a6:	f3 0f 1e fa          	endbr64 
  4025aa:	50                   	push   %rax
  4025ab:	58                   	pop    %rax
  4025ac:	48 83 ec 08          	sub    $0x8,%rsp
  4025b0:	83 3d 71 4f 00 00 00 	cmpl   $0x0,0x4f71(%rip)        # 407528 <is_checker>
  4025b7:	74 16                	je     4025cf <bushandler+0x29>
  4025b9:	48 8d 3d 13 1f 00 00 	lea    0x1f13(%rip),%rdi        # 4044d3 <_IO_stdin_used+0x4d3>
  4025c0:	e8 eb ec ff ff       	call   4012b0 <puts@plt>
  4025c5:	b8 00 00 00 00       	mov    $0x0,%eax
  4025ca:	e8 20 fc ff ff       	call   4021ef <check_fail>
  4025cf:	48 8d 3d 9a 20 00 00 	lea    0x209a(%rip),%rdi        # 404670 <_IO_stdin_used+0x670>
  4025d6:	e8 d5 ec ff ff       	call   4012b0 <puts@plt>
  4025db:	48 8d 3d fb 1e 00 00 	lea    0x1efb(%rip),%rdi        # 4044dd <_IO_stdin_used+0x4dd>
  4025e2:	e8 c9 ec ff ff       	call   4012b0 <puts@plt>
  4025e7:	be 00 00 00 00       	mov    $0x0,%esi
  4025ec:	bf 00 00 00 00       	mov    $0x0,%edi
  4025f1:	e8 8d fc ff ff       	call   402283 <notify_server>
  4025f6:	bf 01 00 00 00       	mov    $0x1,%edi
  4025fb:	e8 10 ee ff ff       	call   401410 <exit@plt>

0000000000402600 <seghandler>:
  402600:	f3 0f 1e fa          	endbr64 
  402604:	50                   	push   %rax
  402605:	58                   	pop    %rax
  402606:	48 83 ec 08          	sub    $0x8,%rsp
  40260a:	83 3d 17 4f 00 00 00 	cmpl   $0x0,0x4f17(%rip)        # 407528 <is_checker>
  402611:	74 16                	je     402629 <seghandler+0x29>
  402613:	48 8d 3d d9 1e 00 00 	lea    0x1ed9(%rip),%rdi        # 4044f3 <_IO_stdin_used+0x4f3>
  40261a:	e8 91 ec ff ff       	call   4012b0 <puts@plt>
  40261f:	b8 00 00 00 00       	mov    $0x0,%eax
  402624:	e8 c6 fb ff ff       	call   4021ef <check_fail>
  402629:	48 8d 3d 60 20 00 00 	lea    0x2060(%rip),%rdi        # 404690 <_IO_stdin_used+0x690>
  402630:	e8 7b ec ff ff       	call   4012b0 <puts@plt>
  402635:	48 8d 3d a1 1e 00 00 	lea    0x1ea1(%rip),%rdi        # 4044dd <_IO_stdin_used+0x4dd>
  40263c:	e8 6f ec ff ff       	call   4012b0 <puts@plt>
  402641:	be 00 00 00 00       	mov    $0x0,%esi
  402646:	bf 00 00 00 00       	mov    $0x0,%edi
  40264b:	e8 33 fc ff ff       	call   402283 <notify_server>
  402650:	bf 01 00 00 00       	mov    $0x1,%edi
  402655:	e8 b6 ed ff ff       	call   401410 <exit@plt>

000000000040265a <illegalhandler>:
  40265a:	f3 0f 1e fa          	endbr64 
  40265e:	50                   	push   %rax
  40265f:	58                   	pop    %rax
  402660:	48 83 ec 08          	sub    $0x8,%rsp
  402664:	83 3d bd 4e 00 00 00 	cmpl   $0x0,0x4ebd(%rip)        # 407528 <is_checker>
  40266b:	74 16                	je     402683 <illegalhandler+0x29>
  40266d:	48 8d 3d 92 1e 00 00 	lea    0x1e92(%rip),%rdi        # 404506 <_IO_stdin_used+0x506>
  402674:	e8 37 ec ff ff       	call   4012b0 <puts@plt>
  402679:	b8 00 00 00 00       	mov    $0x0,%eax
  40267e:	e8 6c fb ff ff       	call   4021ef <check_fail>
  402683:	48 8d 3d 2e 20 00 00 	lea    0x202e(%rip),%rdi        # 4046b8 <_IO_stdin_used+0x6b8>
  40268a:	e8 21 ec ff ff       	call   4012b0 <puts@plt>
  40268f:	48 8d 3d 47 1e 00 00 	lea    0x1e47(%rip),%rdi        # 4044dd <_IO_stdin_used+0x4dd>
  402696:	e8 15 ec ff ff       	call   4012b0 <puts@plt>
  40269b:	be 00 00 00 00       	mov    $0x0,%esi
  4026a0:	bf 00 00 00 00       	mov    $0x0,%edi
  4026a5:	e8 d9 fb ff ff       	call   402283 <notify_server>
  4026aa:	bf 01 00 00 00       	mov    $0x1,%edi
  4026af:	e8 5c ed ff ff       	call   401410 <exit@plt>

00000000004026b4 <sigalrmhandler>:
  4026b4:	f3 0f 1e fa          	endbr64 
  4026b8:	50                   	push   %rax
  4026b9:	58                   	pop    %rax
  4026ba:	48 83 ec 08          	sub    $0x8,%rsp
  4026be:	83 3d 63 4e 00 00 00 	cmpl   $0x0,0x4e63(%rip)        # 407528 <is_checker>
  4026c5:	74 16                	je     4026dd <sigalrmhandler+0x29>
  4026c7:	48 8d 3d 4c 1e 00 00 	lea    0x1e4c(%rip),%rdi        # 40451a <_IO_stdin_used+0x51a>
  4026ce:	e8 dd eb ff ff       	call   4012b0 <puts@plt>
  4026d3:	b8 00 00 00 00       	mov    $0x0,%eax
  4026d8:	e8 12 fb ff ff       	call   4021ef <check_fail>
  4026dd:	ba 02 00 00 00       	mov    $0x2,%edx
  4026e2:	48 8d 35 ff 1f 00 00 	lea    0x1fff(%rip),%rsi        # 4046e8 <_IO_stdin_used+0x6e8>
  4026e9:	bf 01 00 00 00       	mov    $0x1,%edi
  4026ee:	b8 00 00 00 00       	mov    $0x0,%eax
  4026f3:	e8 c8 ec ff ff       	call   4013c0 <__printf_chk@plt>
  4026f8:	be 00 00 00 00       	mov    $0x0,%esi
  4026fd:	bf 00 00 00 00       	mov    $0x0,%edi
  402702:	e8 7c fb ff ff       	call   402283 <notify_server>
  402707:	bf 01 00 00 00       	mov    $0x1,%edi
  40270c:	e8 ff ec ff ff       	call   401410 <exit@plt>

0000000000402711 <__stack_chk_fail>:
  402711:	f3 0f 1e fa          	endbr64 
  402715:	50                   	push   %rax
  402716:	58                   	pop    %rax
  402717:	48 83 ec 08          	sub    $0x8,%rsp
  40271b:	83 3d 06 4e 00 00 00 	cmpl   $0x0,0x4e06(%rip)        # 407528 <is_checker>
  402722:	74 16                	je     40273a <__stack_chk_fail+0x29>
  402724:	48 8d 3d f7 1d 00 00 	lea    0x1df7(%rip),%rdi        # 404522 <_IO_stdin_used+0x522>
  40272b:	e8 80 eb ff ff       	call   4012b0 <puts@plt>
  402730:	b8 00 00 00 00       	mov    $0x0,%eax
  402735:	e8 b5 fa ff ff       	call   4021ef <check_fail>
  40273a:	48 8d 3d df 1f 00 00 	lea    0x1fdf(%rip),%rdi        # 404720 <_IO_stdin_used+0x720>
  402741:	e8 6a eb ff ff       	call   4012b0 <puts@plt>
  402746:	48 8d 3d 90 1d 00 00 	lea    0x1d90(%rip),%rdi        # 4044dd <_IO_stdin_used+0x4dd>
  40274d:	e8 5e eb ff ff       	call   4012b0 <puts@plt>
  402752:	be 00 00 00 00       	mov    $0x0,%esi
  402757:	bf 00 00 00 00       	mov    $0x0,%edi
  40275c:	e8 22 fb ff ff       	call   402283 <notify_server>
  402761:	bf 01 00 00 00       	mov    $0x1,%edi
  402766:	e8 a5 ec ff ff       	call   401410 <exit@plt>

000000000040276b <launch>:
  40276b:	f3 0f 1e fa          	endbr64 
  40276f:	55                   	push   %rbp
  402770:	48 89 e5             	mov    %rsp,%rbp
  402773:	53                   	push   %rbx
  402774:	48 83 ec 18          	sub    $0x18,%rsp
  402778:	48 89 fa             	mov    %rdi,%rdx
  40277b:	89 f3                	mov    %esi,%ebx
  40277d:	64 48 8b 04 25 28 00 	mov    %fs:0x28,%rax
  402784:	00 00 
  402786:	48 89 45 e8          	mov    %rax,-0x18(%rbp)
  40278a:	31 c0                	xor    %eax,%eax
  40278c:	48 8d 47 17          	lea    0x17(%rdi),%rax
  402790:	48 89 c1             	mov    %rax,%rcx
  402793:	48 83 e1 f0          	and    $0xfffffffffffffff0,%rcx
  402797:	48 25 00 f0 ff ff    	and    $0xfffffffffffff000,%rax
  40279d:	48 89 e6             	mov    %rsp,%rsi
  4027a0:	48 29 c6             	sub    %rax,%rsi
  4027a3:	48 89 f0             	mov    %rsi,%rax
  4027a6:	48 39 c4             	cmp    %rax,%rsp
  4027a9:	74 12                	je     4027bd <launch+0x52>
  4027ab:	48 81 ec 00 10 00 00 	sub    $0x1000,%rsp
  4027b2:	48 83 8c 24 f8 0f 00 	orq    $0x0,0xff8(%rsp)
  4027b9:	00 00 
  4027bb:	eb e9                	jmp    4027a6 <launch+0x3b>
  4027bd:	48 89 c8             	mov    %rcx,%rax
  4027c0:	25 ff 0f 00 00       	and    $0xfff,%eax
  4027c5:	48 29 c4             	sub    %rax,%rsp
  4027c8:	48 85 c0             	test   %rax,%rax
  4027cb:	74 06                	je     4027d3 <launch+0x68>
  4027cd:	48 83 4c 04 f8 00    	orq    $0x0,-0x8(%rsp,%rax,1)
  4027d3:	48 8d 7c 24 0f       	lea    0xf(%rsp),%rdi
  4027d8:	48 83 e7 f0          	and    $0xfffffffffffffff0,%rdi
  4027dc:	be f4 00 00 00       	mov    $0xf4,%esi
  4027e1:	e8 fa ea ff ff       	call   4012e0 <memset@plt>
  4027e6:	48 8b 05 d3 4c 00 00 	mov    0x4cd3(%rip),%rax        # 4074c0 <stdin@GLIBC_2.2.5>
  4027ed:	48 39 05 1c 4d 00 00 	cmp    %rax,0x4d1c(%rip)        # 407510 <infile>
  4027f4:	74 42                	je     402838 <launch+0xcd>
  4027f6:	c7 05 1c 4d 00 00 00 	movl   $0x0,0x4d1c(%rip)        # 40751c <vlevel>
  4027fd:	00 00 00 
  402800:	85 db                	test   %ebx,%ebx
  402802:	75 42                	jne    402846 <launch+0xdb>
  402804:	b8 00 00 00 00       	mov    $0x0,%eax
  402809:	e8 db f8 ff ff       	call   4020e9 <test>
  40280e:	83 3d 13 4d 00 00 00 	cmpl   $0x0,0x4d13(%rip)        # 407528 <is_checker>
  402815:	75 3b                	jne    402852 <launch+0xe7>
  402817:	48 8d 3d 2b 1d 00 00 	lea    0x1d2b(%rip),%rdi        # 404549 <_IO_stdin_used+0x549>
  40281e:	e8 8d ea ff ff       	call   4012b0 <puts@plt>
  402823:	48 8b 45 e8          	mov    -0x18(%rbp),%rax
  402827:	64 48 33 04 25 28 00 	xor    %fs:0x28,%rax
  40282e:	00 00 
  402830:	75 36                	jne    402868 <launch+0xfd>
  402832:	48 8b 5d f8          	mov    -0x8(%rbp),%rbx
  402836:	c9                   	leave  
  402837:	c3                   	ret    
  402838:	48 8d 3d f2 1c 00 00 	lea    0x1cf2(%rip),%rdi        # 404531 <_IO_stdin_used+0x531>
  40283f:	e8 6c ea ff ff       	call   4012b0 <puts@plt>
  402844:	eb b0                	jmp    4027f6 <launch+0x8b>
  402846:	b8 00 00 00 00       	mov    $0x0,%eax
  40284b:	e8 01 f9 ff ff       	call   402151 <test2>
  402850:	eb bc                	jmp    40280e <launch+0xa3>
  402852:	48 8d 3d e5 1c 00 00 	lea    0x1ce5(%rip),%rdi        # 40453e <_IO_stdin_used+0x53e>
  402859:	e8 52 ea ff ff       	call   4012b0 <puts@plt>
  40285e:	b8 00 00 00 00       	mov    $0x0,%eax
  402863:	e8 87 f9 ff ff       	call   4021ef <check_fail>
  402868:	e8 a4 fe ff ff       	call   402711 <__stack_chk_fail>

000000000040286d <stable_launch>:
  40286d:	f3 0f 1e fa          	endbr64 
  402871:	55                   	push   %rbp
  402872:	53                   	push   %rbx
  402873:	48 83 ec 08          	sub    $0x8,%rsp
  402877:	89 f5                	mov    %esi,%ebp
  402879:	48 89 3d 88 4c 00 00 	mov    %rdi,0x4c88(%rip)        # 407508 <global_offset>
  402880:	41 b9 00 00 00 00    	mov    $0x0,%r9d
  402886:	41 b8 00 00 00 00    	mov    $0x0,%r8d
  40288c:	b9 32 01 00 00       	mov    $0x132,%ecx
  402891:	ba 07 00 00 00       	mov    $0x7,%edx
  402896:	be 00 00 10 00       	mov    $0x100000,%esi
  40289b:	bf 00 60 58 55       	mov    $0x55586000,%edi
  4028a0:	e8 2b ea ff ff       	call   4012d0 <mmap@plt>
  4028a5:	48 89 c3             	mov    %rax,%rbx
  4028a8:	48 3d 00 60 58 55    	cmp    $0x55586000,%rax
  4028ae:	75 4a                	jne    4028fa <stable_launch+0x8d>
  4028b0:	48 8d 90 f8 ff 0f 00 	lea    0xffff8(%rax),%rdx
  4028b7:	48 89 15 92 58 00 00 	mov    %rdx,0x5892(%rip)        # 408150 <stack_top>
  4028be:	48 89 e0             	mov    %rsp,%rax
  4028c1:	48 89 d4             	mov    %rdx,%rsp
  4028c4:	48 89 c2             	mov    %rax,%rdx
  4028c7:	48 89 15 32 4c 00 00 	mov    %rdx,0x4c32(%rip)        # 407500 <global_save_stack>
  4028ce:	89 ee                	mov    %ebp,%esi
  4028d0:	48 8b 3d 31 4c 00 00 	mov    0x4c31(%rip),%rdi        # 407508 <global_offset>
  4028d7:	e8 8f fe ff ff       	call   40276b <launch>
  4028dc:	48 8b 05 1d 4c 00 00 	mov    0x4c1d(%rip),%rax        # 407500 <global_save_stack>
  4028e3:	48 89 c4             	mov    %rax,%rsp
  4028e6:	be 00 00 10 00       	mov    $0x100000,%esi
  4028eb:	48 89 df             	mov    %rbx,%rdi
  4028ee:	e8 bd ea ff ff       	call   4013b0 <munmap@plt>
  4028f3:	48 83 c4 08          	add    $0x8,%rsp
  4028f7:	5b                   	pop    %rbx
  4028f8:	5d                   	pop    %rbp
  4028f9:	c3                   	ret    
  4028fa:	be 00 00 10 00       	mov    $0x100000,%esi
  4028ff:	48 89 c7             	mov    %rax,%rdi
  402902:	e8 a9 ea ff ff       	call   4013b0 <munmap@plt>
  402907:	b9 00 60 58 55       	mov    $0x55586000,%ecx
  40290c:	48 8d 15 35 1e 00 00 	lea    0x1e35(%rip),%rdx        # 404748 <_IO_stdin_used+0x748>
  402913:	be 01 00 00 00       	mov    $0x1,%esi
  402918:	48 8b 3d c1 4b 00 00 	mov    0x4bc1(%rip),%rdi        # 4074e0 <stderr@GLIBC_2.2.5>
  40291f:	b8 00 00 00 00       	mov    $0x0,%eax
  402924:	e8 07 eb ff ff       	call   401430 <__fprintf_chk@plt>
  402929:	bf 01 00 00 00       	mov    $0x1,%edi
  40292e:	e8 dd ea ff ff       	call   401410 <exit@plt>

0000000000402933 <rio_readinitb>:
  402933:	89 37                	mov    %esi,(%rdi)
  402935:	c7 47 04 00 00 00 00 	movl   $0x0,0x4(%rdi)
  40293c:	48 8d 47 10          	lea    0x10(%rdi),%rax
  402940:	48 89 47 08          	mov    %rax,0x8(%rdi)
  402944:	c3                   	ret    

0000000000402945 <sigalrm_handler>:
  402945:	f3 0f 1e fa          	endbr64 
  402949:	50                   	push   %rax
  40294a:	58                   	pop    %rax
  40294b:	48 83 ec 08          	sub    $0x8,%rsp
  40294f:	b9 00 00 00 00       	mov    $0x0,%ecx
  402954:	48 8d 15 25 1e 00 00 	lea    0x1e25(%rip),%rdx        # 404780 <trans_char+0x10>
  40295b:	be 01 00 00 00       	mov    $0x1,%esi
  402960:	48 8b 3d 79 4b 00 00 	mov    0x4b79(%rip),%rdi        # 4074e0 <stderr@GLIBC_2.2.5>
  402967:	b8 00 00 00 00       	mov    $0x0,%eax
  40296c:	e8 bf ea ff ff       	call   401430 <__fprintf_chk@plt>
  402971:	bf 01 00 00 00       	mov    $0x1,%edi
  402976:	e8 95 ea ff ff       	call   401410 <exit@plt>

000000000040297b <rio_writen>:
  40297b:	41 55                	push   %r13
  40297d:	41 54                	push   %r12
  40297f:	55                   	push   %rbp
  402980:	53                   	push   %rbx
  402981:	48 83 ec 08          	sub    $0x8,%rsp
  402985:	41 89 fc             	mov    %edi,%r12d
  402988:	48 89 f5             	mov    %rsi,%rbp
  40298b:	49 89 d5             	mov    %rdx,%r13
  40298e:	48 89 d3             	mov    %rdx,%rbx
  402991:	eb 06                	jmp    402999 <rio_writen+0x1e>
  402993:	48 29 c3             	sub    %rax,%rbx
  402996:	48 01 c5             	add    %rax,%rbp
  402999:	48 85 db             	test   %rbx,%rbx
  40299c:	74 24                	je     4029c2 <rio_writen+0x47>
  40299e:	48 89 da             	mov    %rbx,%rdx
  4029a1:	48 89 ee             	mov    %rbp,%rsi
  4029a4:	44 89 e7             	mov    %r12d,%edi
  4029a7:	e8 14 e9 ff ff       	call   4012c0 <write@plt>
  4029ac:	48 85 c0             	test   %rax,%rax
  4029af:	7f e2                	jg     402993 <rio_writen+0x18>
  4029b1:	e8 aa e8 ff ff       	call   401260 <__errno_location@plt>
  4029b6:	83 38 04             	cmpl   $0x4,(%rax)
  4029b9:	75 15                	jne    4029d0 <rio_writen+0x55>
  4029bb:	b8 00 00 00 00       	mov    $0x0,%eax
  4029c0:	eb d1                	jmp    402993 <rio_writen+0x18>
  4029c2:	4c 89 e8             	mov    %r13,%rax
  4029c5:	48 83 c4 08          	add    $0x8,%rsp
  4029c9:	5b                   	pop    %rbx
  4029ca:	5d                   	pop    %rbp
  4029cb:	41 5c                	pop    %r12
  4029cd:	41 5d                	pop    %r13
  4029cf:	c3                   	ret    
  4029d0:	48 c7 c0 ff ff ff ff 	mov    $0xffffffffffffffff,%rax
  4029d7:	eb ec                	jmp    4029c5 <rio_writen+0x4a>

00000000004029d9 <rio_read>:
  4029d9:	41 55                	push   %r13
  4029db:	41 54                	push   %r12
  4029dd:	55                   	push   %rbp
  4029de:	53                   	push   %rbx
  4029df:	48 83 ec 08          	sub    $0x8,%rsp
  4029e3:	48 89 fb             	mov    %rdi,%rbx
  4029e6:	49 89 f5             	mov    %rsi,%r13
  4029e9:	49 89 d4             	mov    %rdx,%r12
  4029ec:	eb 17                	jmp    402a05 <rio_read+0x2c>
  4029ee:	e8 6d e8 ff ff       	call   401260 <__errno_location@plt>
  4029f3:	83 38 04             	cmpl   $0x4,(%rax)
  4029f6:	74 0d                	je     402a05 <rio_read+0x2c>
  4029f8:	48 c7 c0 ff ff ff ff 	mov    $0xffffffffffffffff,%rax
  4029ff:	eb 54                	jmp    402a55 <rio_read+0x7c>
  402a01:	48 89 6b 08          	mov    %rbp,0x8(%rbx)
  402a05:	8b 6b 04             	mov    0x4(%rbx),%ebp
  402a08:	85 ed                	test   %ebp,%ebp
  402a0a:	7f 23                	jg     402a2f <rio_read+0x56>
  402a0c:	48 8d 6b 10          	lea    0x10(%rbx),%rbp
  402a10:	8b 3b                	mov    (%rbx),%edi
  402a12:	ba 00 20 00 00       	mov    $0x2000,%edx
  402a17:	48 89 ee             	mov    %rbp,%rsi
  402a1a:	e8 f1 e8 ff ff       	call   401310 <read@plt>
  402a1f:	89 43 04             	mov    %eax,0x4(%rbx)
  402a22:	85 c0                	test   %eax,%eax
  402a24:	78 c8                	js     4029ee <rio_read+0x15>
  402a26:	75 d9                	jne    402a01 <rio_read+0x28>
  402a28:	b8 00 00 00 00       	mov    $0x0,%eax
  402a2d:	eb 26                	jmp    402a55 <rio_read+0x7c>
  402a2f:	89 e8                	mov    %ebp,%eax
  402a31:	4c 39 e0             	cmp    %r12,%rax
  402a34:	72 03                	jb     402a39 <rio_read+0x60>
  402a36:	44 89 e5             	mov    %r12d,%ebp
  402a39:	4c 63 e5             	movslq %ebp,%r12
  402a3c:	48 8b 73 08          	mov    0x8(%rbx),%rsi
  402a40:	4c 89 e2             	mov    %r12,%rdx
  402a43:	4c 89 ef             	mov    %r13,%rdi
  402a46:	e8 25 e9 ff ff       	call   401370 <memcpy@plt>
  402a4b:	4c 01 63 08          	add    %r12,0x8(%rbx)
  402a4f:	29 6b 04             	sub    %ebp,0x4(%rbx)
  402a52:	4c 89 e0             	mov    %r12,%rax
  402a55:	48 83 c4 08          	add    $0x8,%rsp
  402a59:	5b                   	pop    %rbx
  402a5a:	5d                   	pop    %rbp
  402a5b:	41 5c                	pop    %r12
  402a5d:	41 5d                	pop    %r13
  402a5f:	c3                   	ret    

0000000000402a60 <rio_readlineb>:
  402a60:	41 55                	push   %r13
  402a62:	41 54                	push   %r12
  402a64:	55                   	push   %rbp
  402a65:	53                   	push   %rbx
  402a66:	48 83 ec 18          	sub    $0x18,%rsp
  402a6a:	49 89 fd             	mov    %rdi,%r13
  402a6d:	48 89 f5             	mov    %rsi,%rbp
  402a70:	49 89 d4             	mov    %rdx,%r12
  402a73:	64 48 8b 04 25 28 00 	mov    %fs:0x28,%rax
  402a7a:	00 00 
  402a7c:	48 89 44 24 08       	mov    %rax,0x8(%rsp)
  402a81:	31 c0                	xor    %eax,%eax
  402a83:	bb 01 00 00 00       	mov    $0x1,%ebx
  402a88:	eb 18                	jmp    402aa2 <rio_readlineb+0x42>
  402a8a:	85 c0                	test   %eax,%eax
  402a8c:	75 65                	jne    402af3 <rio_readlineb+0x93>
  402a8e:	48 83 fb 01          	cmp    $0x1,%rbx
  402a92:	75 3d                	jne    402ad1 <rio_readlineb+0x71>
  402a94:	b8 00 00 00 00       	mov    $0x0,%eax
  402a99:	eb 3d                	jmp    402ad8 <rio_readlineb+0x78>
  402a9b:	48 83 c3 01          	add    $0x1,%rbx
  402a9f:	48 89 d5             	mov    %rdx,%rbp
  402aa2:	4c 39 e3             	cmp    %r12,%rbx
  402aa5:	73 2a                	jae    402ad1 <rio_readlineb+0x71>
  402aa7:	48 8d 74 24 07       	lea    0x7(%rsp),%rsi
  402aac:	ba 01 00 00 00       	mov    $0x1,%edx
  402ab1:	4c 89 ef             	mov    %r13,%rdi
  402ab4:	e8 20 ff ff ff       	call   4029d9 <rio_read>
  402ab9:	83 f8 01             	cmp    $0x1,%eax
  402abc:	75 cc                	jne    402a8a <rio_readlineb+0x2a>
  402abe:	48 8d 55 01          	lea    0x1(%rbp),%rdx
  402ac2:	0f b6 44 24 07       	movzbl 0x7(%rsp),%eax
  402ac7:	88 45 00             	mov    %al,0x0(%rbp)
  402aca:	3c 0a                	cmp    $0xa,%al
  402acc:	75 cd                	jne    402a9b <rio_readlineb+0x3b>
  402ace:	48 89 d5             	mov    %rdx,%rbp
  402ad1:	c6 45 00 00          	movb   $0x0,0x0(%rbp)
  402ad5:	48 89 d8             	mov    %rbx,%rax
  402ad8:	48 8b 4c 24 08       	mov    0x8(%rsp),%rcx
  402add:	64 48 33 0c 25 28 00 	xor    %fs:0x28,%rcx
  402ae4:	00 00 
  402ae6:	75 14                	jne    402afc <rio_readlineb+0x9c>
  402ae8:	48 83 c4 18          	add    $0x18,%rsp
  402aec:	5b                   	pop    %rbx
  402aed:	5d                   	pop    %rbp
  402aee:	41 5c                	pop    %r12
  402af0:	41 5d                	pop    %r13
  402af2:	c3                   	ret    
  402af3:	48 c7 c0 ff ff ff ff 	mov    $0xffffffffffffffff,%rax
  402afa:	eb dc                	jmp    402ad8 <rio_readlineb+0x78>
  402afc:	e8 10 fc ff ff       	call   402711 <__stack_chk_fail>

0000000000402b01 <urlencode>:
  402b01:	41 54                	push   %r12
  402b03:	55                   	push   %rbp
  402b04:	53                   	push   %rbx
  402b05:	48 83 ec 10          	sub    $0x10,%rsp
  402b09:	48 89 fb             	mov    %rdi,%rbx
  402b0c:	48 89 f5             	mov    %rsi,%rbp
  402b0f:	64 48 8b 04 25 28 00 	mov    %fs:0x28,%rax
  402b16:	00 00 
  402b18:	48 89 44 24 08       	mov    %rax,0x8(%rsp)
  402b1d:	31 c0                	xor    %eax,%eax
  402b1f:	48 c7 c1 ff ff ff ff 	mov    $0xffffffffffffffff,%rcx
  402b26:	f2 ae                	repnz scas %es:(%rdi),%al
  402b28:	48 f7 d1             	not    %rcx
  402b2b:	8d 41 ff             	lea    -0x1(%rcx),%eax
  402b2e:	eb 0f                	jmp    402b3f <urlencode+0x3e>
  402b30:	44 88 45 00          	mov    %r8b,0x0(%rbp)
  402b34:	48 8d 6d 01          	lea    0x1(%rbp),%rbp
  402b38:	48 83 c3 01          	add    $0x1,%rbx
  402b3c:	44 89 e0             	mov    %r12d,%eax
  402b3f:	44 8d 60 ff          	lea    -0x1(%rax),%r12d
  402b43:	85 c0                	test   %eax,%eax
  402b45:	0f 84 a8 00 00 00    	je     402bf3 <urlencode+0xf2>
  402b4b:	44 0f b6 03          	movzbl (%rbx),%r8d
  402b4f:	41 80 f8 2a          	cmp    $0x2a,%r8b
  402b53:	0f 94 c2             	sete   %dl
  402b56:	41 80 f8 2d          	cmp    $0x2d,%r8b
  402b5a:	0f 94 c0             	sete   %al
  402b5d:	08 c2                	or     %al,%dl
  402b5f:	75 cf                	jne    402b30 <urlencode+0x2f>
  402b61:	41 80 f8 2e          	cmp    $0x2e,%r8b
  402b65:	74 c9                	je     402b30 <urlencode+0x2f>
  402b67:	41 80 f8 5f          	cmp    $0x5f,%r8b
  402b6b:	74 c3                	je     402b30 <urlencode+0x2f>
  402b6d:	41 8d 40 d0          	lea    -0x30(%r8),%eax
  402b71:	3c 09                	cmp    $0x9,%al
  402b73:	76 bb                	jbe    402b30 <urlencode+0x2f>
  402b75:	41 8d 40 bf          	lea    -0x41(%r8),%eax
  402b79:	3c 19                	cmp    $0x19,%al
  402b7b:	76 b3                	jbe    402b30 <urlencode+0x2f>
  402b7d:	41 8d 40 9f          	lea    -0x61(%r8),%eax
  402b81:	3c 19                	cmp    $0x19,%al
  402b83:	76 ab                	jbe    402b30 <urlencode+0x2f>
  402b85:	41 80 f8 20          	cmp    $0x20,%r8b
  402b89:	74 56                	je     402be1 <urlencode+0xe0>
  402b8b:	41 8d 40 e0          	lea    -0x20(%r8),%eax
  402b8f:	3c 5f                	cmp    $0x5f,%al
  402b91:	0f 96 c2             	setbe  %dl
  402b94:	41 80 f8 09          	cmp    $0x9,%r8b
  402b98:	0f 94 c0             	sete   %al
  402b9b:	08 c2                	or     %al,%dl
  402b9d:	74 4f                	je     402bee <urlencode+0xed>
  402b9f:	48 89 e7             	mov    %rsp,%rdi
  402ba2:	45 0f b6 c0          	movzbl %r8b,%r8d
  402ba6:	48 8d 0d 88 1c 00 00 	lea    0x1c88(%rip),%rcx        # 404835 <trans_char+0xc5>
  402bad:	ba 08 00 00 00       	mov    $0x8,%edx
  402bb2:	be 01 00 00 00       	mov    $0x1,%esi
  402bb7:	b8 00 00 00 00       	mov    $0x0,%eax
  402bbc:	e8 8f e8 ff ff       	call   401450 <__sprintf_chk@plt>
  402bc1:	0f b6 04 24          	movzbl (%rsp),%eax
  402bc5:	88 45 00             	mov    %al,0x0(%rbp)
  402bc8:	0f b6 44 24 01       	movzbl 0x1(%rsp),%eax
  402bcd:	88 45 01             	mov    %al,0x1(%rbp)
  402bd0:	0f b6 44 24 02       	movzbl 0x2(%rsp),%eax
  402bd5:	88 45 02             	mov    %al,0x2(%rbp)
  402bd8:	48 8d 6d 03          	lea    0x3(%rbp),%rbp
  402bdc:	e9 57 ff ff ff       	jmp    402b38 <urlencode+0x37>
  402be1:	c6 45 00 2b          	movb   $0x2b,0x0(%rbp)
  402be5:	48 8d 6d 01          	lea    0x1(%rbp),%rbp
  402be9:	e9 4a ff ff ff       	jmp    402b38 <urlencode+0x37>
  402bee:	b8 ff ff ff ff       	mov    $0xffffffff,%eax
  402bf3:	48 8b 74 24 08       	mov    0x8(%rsp),%rsi
  402bf8:	64 48 33 34 25 28 00 	xor    %fs:0x28,%rsi
  402bff:	00 00 
  402c01:	75 09                	jne    402c0c <urlencode+0x10b>
  402c03:	48 83 c4 10          	add    $0x10,%rsp
  402c07:	5b                   	pop    %rbx
  402c08:	5d                   	pop    %rbp
  402c09:	41 5c                	pop    %r12
  402c0b:	c3                   	ret    
  402c0c:	e8 00 fb ff ff       	call   402711 <__stack_chk_fail>

0000000000402c11 <submitr>:
  402c11:	f3 0f 1e fa          	endbr64 
  402c15:	41 57                	push   %r15
  402c17:	41 56                	push   %r14
  402c19:	41 55                	push   %r13
  402c1b:	41 54                	push   %r12
  402c1d:	55                   	push   %rbp
  402c1e:	53                   	push   %rbx
  402c1f:	4c 8d 9c 24 00 60 ff 	lea    -0xa000(%rsp),%r11
  402c26:	ff 
  402c27:	48 81 ec 00 10 00 00 	sub    $0x1000,%rsp
  402c2e:	48 83 0c 24 00       	orq    $0x0,(%rsp)
  402c33:	4c 39 dc             	cmp    %r11,%rsp
  402c36:	75 ef                	jne    402c27 <submitr+0x16>
  402c38:	48 83 ec 68          	sub    $0x68,%rsp
  402c3c:	49 89 fc             	mov    %rdi,%r12
  402c3f:	89 74 24 1c          	mov    %esi,0x1c(%rsp)
  402c43:	48 89 54 24 08       	mov    %rdx,0x8(%rsp)
  402c48:	49 89 cd             	mov    %rcx,%r13
  402c4b:	4c 89 44 24 10       	mov    %r8,0x10(%rsp)
  402c50:	4d 89 ce             	mov    %r9,%r14
  402c53:	48 8b ac 24 a0 a0 00 	mov    0xa0a0(%rsp),%rbp
  402c5a:	00 
  402c5b:	64 48 8b 04 25 28 00 	mov    %fs:0x28,%rax
  402c62:	00 00 
  402c64:	48 89 84 24 58 a0 00 	mov    %rax,0xa058(%rsp)
  402c6b:	00 
  402c6c:	31 c0                	xor    %eax,%eax
  402c6e:	c7 44 24 2c 00 00 00 	movl   $0x0,0x2c(%rsp)
  402c75:	00 
  402c76:	ba 00 00 00 00       	mov    $0x0,%edx
  402c7b:	be 01 00 00 00       	mov    $0x1,%esi
  402c80:	bf 02 00 00 00       	mov    $0x2,%edi
  402c85:	e8 d6 e7 ff ff       	call   401460 <socket@plt>
  402c8a:	85 c0                	test   %eax,%eax
  402c8c:	0f 88 a5 02 00 00    	js     402f37 <submitr+0x326>
  402c92:	89 c3                	mov    %eax,%ebx
  402c94:	4c 89 e7             	mov    %r12,%rdi
  402c97:	e8 a4 e6 ff ff       	call   401340 <gethostbyname@plt>
  402c9c:	48 85 c0             	test   %rax,%rax
  402c9f:	0f 84 de 02 00 00    	je     402f83 <submitr+0x372>
  402ca5:	4c 8d 7c 24 30       	lea    0x30(%rsp),%r15
  402caa:	48 c7 44 24 30 00 00 	movq   $0x0,0x30(%rsp)
  402cb1:	00 00 
  402cb3:	48 c7 44 24 38 00 00 	movq   $0x0,0x38(%rsp)
  402cba:	00 00 
  402cbc:	66 c7 44 24 30 02 00 	movw   $0x2,0x30(%rsp)
  402cc3:	48 63 50 14          	movslq 0x14(%rax),%rdx
  402cc7:	48 8b 40 18          	mov    0x18(%rax),%rax
  402ccb:	48 8b 30             	mov    (%rax),%rsi
  402cce:	48 8d 7c 24 34       	lea    0x34(%rsp),%rdi
  402cd3:	b9 0c 00 00 00       	mov    $0xc,%ecx
  402cd8:	e8 73 e6 ff ff       	call   401350 <__memmove_chk@plt>
  402cdd:	0f b7 74 24 1c       	movzwl 0x1c(%rsp),%esi
  402ce2:	66 c1 c6 08          	rol    $0x8,%si
  402ce6:	66 89 74 24 32       	mov    %si,0x32(%rsp)
  402ceb:	ba 10 00 00 00       	mov    $0x10,%edx
  402cf0:	4c 89 fe             	mov    %r15,%rsi
  402cf3:	89 df                	mov    %ebx,%edi
  402cf5:	e8 26 e7 ff ff       	call   401420 <connect@plt>
  402cfa:	85 c0                	test   %eax,%eax
  402cfc:	0f 88 f7 02 00 00    	js     402ff9 <submitr+0x3e8>
  402d02:	48 c7 c6 ff ff ff ff 	mov    $0xffffffffffffffff,%rsi
  402d09:	b8 00 00 00 00       	mov    $0x0,%eax
  402d0e:	48 89 f1             	mov    %rsi,%rcx
  402d11:	4c 89 f7             	mov    %r14,%rdi
  402d14:	f2 ae                	repnz scas %es:(%rdi),%al
  402d16:	48 89 ca             	mov    %rcx,%rdx
  402d19:	48 f7 d2             	not    %rdx
  402d1c:	48 89 f1             	mov    %rsi,%rcx
  402d1f:	48 8b 7c 24 08       	mov    0x8(%rsp),%rdi
  402d24:	f2 ae                	repnz scas %es:(%rdi),%al
  402d26:	48 f7 d1             	not    %rcx
  402d29:	49 89 c8             	mov    %rcx,%r8
  402d2c:	48 89 f1             	mov    %rsi,%rcx
  402d2f:	4c 89 ef             	mov    %r13,%rdi
  402d32:	f2 ae                	repnz scas %es:(%rdi),%al
  402d34:	48 f7 d1             	not    %rcx
  402d37:	4d 8d 44 08 fe       	lea    -0x2(%r8,%rcx,1),%r8
  402d3c:	48 89 f1             	mov    %rsi,%rcx
  402d3f:	48 8b 7c 24 10       	mov    0x10(%rsp),%rdi
  402d44:	f2 ae                	repnz scas %es:(%rdi),%al
  402d46:	48 89 c8             	mov    %rcx,%rax
  402d49:	48 f7 d0             	not    %rax
  402d4c:	49 8d 4c 00 ff       	lea    -0x1(%r8,%rax,1),%rcx
  402d51:	48 8d 44 52 fd       	lea    -0x3(%rdx,%rdx,2),%rax
  402d56:	48 8d 84 01 80 00 00 	lea    0x80(%rcx,%rax,1),%rax
  402d5d:	00 
  402d5e:	48 3d 00 20 00 00    	cmp    $0x2000,%rax
  402d64:	0f 87 f7 02 00 00    	ja     403061 <submitr+0x450>
  402d6a:	48 8d b4 24 50 40 00 	lea    0x4050(%rsp),%rsi
  402d71:	00 
  402d72:	b9 00 04 00 00       	mov    $0x400,%ecx
  402d77:	b8 00 00 00 00       	mov    $0x0,%eax
  402d7c:	48 89 f7             	mov    %rsi,%rdi
  402d7f:	f3 48 ab             	rep stos %rax,%es:(%rdi)
  402d82:	4c 89 f7             	mov    %r14,%rdi
  402d85:	e8 77 fd ff ff       	call   402b01 <urlencode>
  402d8a:	85 c0                	test   %eax,%eax
  402d8c:	0f 88 42 03 00 00    	js     4030d4 <submitr+0x4c3>
  402d92:	4c 8d bc 24 50 20 00 	lea    0x2050(%rsp),%r15
  402d99:	00 
  402d9a:	48 83 ec 08          	sub    $0x8,%rsp
  402d9e:	41 54                	push   %r12
  402da0:	48 8d 84 24 60 40 00 	lea    0x4060(%rsp),%rax
  402da7:	00 
  402da8:	50                   	push   %rax
  402da9:	41 55                	push   %r13
  402dab:	4c 8b 4c 24 30       	mov    0x30(%rsp),%r9
  402db0:	4c 8b 44 24 28       	mov    0x28(%rsp),%r8
  402db5:	48 8d 0d ec 19 00 00 	lea    0x19ec(%rip),%rcx        # 4047a8 <trans_char+0x38>
  402dbc:	ba 00 20 00 00       	mov    $0x2000,%edx
  402dc1:	be 01 00 00 00       	mov    $0x1,%esi
  402dc6:	4c 89 ff             	mov    %r15,%rdi
  402dc9:	b8 00 00 00 00       	mov    $0x0,%eax
  402dce:	e8 7d e6 ff ff       	call   401450 <__sprintf_chk@plt>
  402dd3:	48 c7 c1 ff ff ff ff 	mov    $0xffffffffffffffff,%rcx
  402dda:	b8 00 00 00 00       	mov    $0x0,%eax
  402ddf:	4c 89 ff             	mov    %r15,%rdi
  402de2:	f2 ae                	repnz scas %es:(%rdi),%al
  402de4:	48 f7 d1             	not    %rcx
  402de7:	48 8d 51 ff          	lea    -0x1(%rcx),%rdx
  402deb:	48 83 c4 20          	add    $0x20,%rsp
  402def:	4c 89 fe             	mov    %r15,%rsi
  402df2:	89 df                	mov    %ebx,%edi
  402df4:	e8 82 fb ff ff       	call   40297b <rio_writen>
  402df9:	48 85 c0             	test   %rax,%rax
  402dfc:	0f 88 5d 03 00 00    	js     40315f <submitr+0x54e>
  402e02:	4c 8d 64 24 40       	lea    0x40(%rsp),%r12
  402e07:	89 de                	mov    %ebx,%esi
  402e09:	4c 89 e7             	mov    %r12,%rdi
  402e0c:	e8 22 fb ff ff       	call   402933 <rio_readinitb>
  402e11:	48 8d b4 24 50 20 00 	lea    0x2050(%rsp),%rsi
  402e18:	00 
  402e19:	ba 00 20 00 00       	mov    $0x2000,%edx
  402e1e:	4c 89 e7             	mov    %r12,%rdi
  402e21:	e8 3a fc ff ff       	call   402a60 <rio_readlineb>
  402e26:	48 85 c0             	test   %rax,%rax
  402e29:	0f 8e 9c 03 00 00    	jle    4031cb <submitr+0x5ba>
  402e2f:	48 8d 4c 24 2c       	lea    0x2c(%rsp),%rcx
  402e34:	48 8d 94 24 50 60 00 	lea    0x6050(%rsp),%rdx
  402e3b:	00 
  402e3c:	48 8d bc 24 50 20 00 	lea    0x2050(%rsp),%rdi
  402e43:	00 
  402e44:	4c 8d 84 24 50 80 00 	lea    0x8050(%rsp),%r8
  402e4b:	00 
  402e4c:	48 8d 35 e9 19 00 00 	lea    0x19e9(%rip),%rsi        # 40483c <trans_char+0xcc>
  402e53:	b8 00 00 00 00       	mov    $0x0,%eax
  402e58:	e8 43 e5 ff ff       	call   4013a0 <__isoc99_sscanf@plt>
  402e5d:	48 8d b4 24 50 20 00 	lea    0x2050(%rsp),%rsi
  402e64:	00 
  402e65:	b9 03 00 00 00       	mov    $0x3,%ecx
  402e6a:	48 8d 3d e2 19 00 00 	lea    0x19e2(%rip),%rdi        # 404853 <trans_char+0xe3>
  402e71:	f3 a6                	repz cmpsb %es:(%rdi),%ds:(%rsi)
  402e73:	0f 97 c0             	seta   %al
  402e76:	1c 00                	sbb    $0x0,%al
  402e78:	84 c0                	test   %al,%al
  402e7a:	0f 84 cb 03 00 00    	je     40324b <submitr+0x63a>
  402e80:	48 8d b4 24 50 20 00 	lea    0x2050(%rsp),%rsi
  402e87:	00 
  402e88:	48 8d 7c 24 40       	lea    0x40(%rsp),%rdi
  402e8d:	ba 00 20 00 00       	mov    $0x2000,%edx
  402e92:	e8 c9 fb ff ff       	call   402a60 <rio_readlineb>
  402e97:	48 85 c0             	test   %rax,%rax
  402e9a:	7f c1                	jg     402e5d <submitr+0x24c>
  402e9c:	48 b8 45 72 72 6f 72 	movabs $0x43203a726f727245,%rax
  402ea3:	3a 20 43 
  402ea6:	48 ba 6c 69 65 6e 74 	movabs $0x6e7520746e65696c,%rdx
  402ead:	20 75 6e 
  402eb0:	48 89 45 00          	mov    %rax,0x0(%rbp)
  402eb4:	48 89 55 08          	mov    %rdx,0x8(%rbp)
  402eb8:	48 b8 61 62 6c 65 20 	movabs $0x206f7420656c6261,%rax
  402ebf:	74 6f 20 
  402ec2:	48 ba 72 65 61 64 20 	movabs $0x6165682064616572,%rdx
  402ec9:	68 65 61 
  402ecc:	48 89 45 10          	mov    %rax,0x10(%rbp)
  402ed0:	48 89 55 18          	mov    %rdx,0x18(%rbp)
  402ed4:	48 b8 64 65 72 73 20 	movabs $0x6f72662073726564,%rax
  402edb:	66 72 6f 
  402ede:	48 ba 6d 20 41 75 74 	movabs $0x616c6f747541206d,%rdx
  402ee5:	6f 6c 61 
  402ee8:	48 89 45 20          	mov    %rax,0x20(%rbp)
  402eec:	48 89 55 28          	mov    %rdx,0x28(%rbp)
  402ef0:	48 b8 62 20 73 65 72 	movabs $0x7265767265732062,%rax
  402ef7:	76 65 72 
  402efa:	48 89 45 30          	mov    %rax,0x30(%rbp)
  402efe:	c6 45 38 00          	movb   $0x0,0x38(%rbp)
  402f02:	89 df                	mov    %ebx,%edi
  402f04:	e8 f7 e3 ff ff       	call   401300 <close@plt>
  402f09:	b8 ff ff ff ff       	mov    $0xffffffff,%eax
  402f0e:	48 8b 9c 24 58 a0 00 	mov    0xa058(%rsp),%rbx
  402f15:	00 
  402f16:	64 48 33 1c 25 28 00 	xor    %fs:0x28,%rbx
  402f1d:	00 00 
  402f1f:	0f 85 96 04 00 00    	jne    4033bb <submitr+0x7aa>
  402f25:	48 81 c4 68 a0 00 00 	add    $0xa068,%rsp
  402f2c:	5b                   	pop    %rbx
  402f2d:	5d                   	pop    %rbp
  402f2e:	41 5c                	pop    %r12
  402f30:	41 5d                	pop    %r13
  402f32:	41 5e                	pop    %r14
  402f34:	41 5f                	pop    %r15
  402f36:	c3                   	ret    
  402f37:	48 b8 45 72 72 6f 72 	movabs $0x43203a726f727245,%rax
  402f3e:	3a 20 43 
  402f41:	48 ba 6c 69 65 6e 74 	movabs $0x6e7520746e65696c,%rdx
  402f48:	20 75 6e 
  402f4b:	48 89 45 00          	mov    %rax,0x0(%rbp)
  402f4f:	48 89 55 08          	mov    %rdx,0x8(%rbp)
  402f53:	48 b8 61 62 6c 65 20 	movabs $0x206f7420656c6261,%rax
  402f5a:	74 6f 20 
  402f5d:	48 ba 63 72 65 61 74 	movabs $0x7320657461657263,%rdx
  402f64:	65 20 73 
  402f67:	48 89 45 10          	mov    %rax,0x10(%rbp)
  402f6b:	48 89 55 18          	mov    %rdx,0x18(%rbp)
  402f6f:	c7 45 20 6f 63 6b 65 	movl   $0x656b636f,0x20(%rbp)
  402f76:	66 c7 45 24 74 00    	movw   $0x74,0x24(%rbp)
  402f7c:	b8 ff ff ff ff       	mov    $0xffffffff,%eax
  402f81:	eb 8b                	jmp    402f0e <submitr+0x2fd>
  402f83:	48 b8 45 72 72 6f 72 	movabs $0x44203a726f727245,%rax
  402f8a:	3a 20 44 
  402f8d:	48 ba 4e 53 20 69 73 	movabs $0x6e7520736920534e,%rdx
  402f94:	20 75 6e 
  402f97:	48 89 45 00          	mov    %rax,0x0(%rbp)
  402f9b:	48 89 55 08          	mov    %rdx,0x8(%rbp)
  402f9f:	48 b8 61 62 6c 65 20 	movabs $0x206f7420656c6261,%rax
  402fa6:	74 6f 20 
  402fa9:	48 ba 72 65 73 6f 6c 	movabs $0x2065766c6f736572,%rdx
  402fb0:	76 65 20 
  402fb3:	48 89 45 10          	mov    %rax,0x10(%rbp)
  402fb7:	48 89 55 18          	mov    %rdx,0x18(%rbp)
  402fbb:	48 b8 41 75 74 6f 6c 	movabs $0x2062616c6f747541,%rax
  402fc2:	61 62 20 
  402fc5:	48 ba 73 65 72 76 65 	movabs $0x6120726576726573,%rdx
  402fcc:	72 20 61 
  402fcf:	48 89 45 20          	mov    %rax,0x20(%rbp)
  402fd3:	48 89 55 28          	mov    %rdx,0x28(%rbp)
  402fd7:	c7 45 30 64 64 72 65 	movl   $0x65726464,0x30(%rbp)
  402fde:	66 c7 45 34 73 73    	movw   $0x7373,0x34(%rbp)
  402fe4:	c6 45 36 00          	movb   $0x0,0x36(%rbp)
  402fe8:	89 df                	mov    %ebx,%edi
  402fea:	e8 11 e3 ff ff       	call   401300 <close@plt>
  402fef:	b8 ff ff ff ff       	mov    $0xffffffff,%eax
  402ff4:	e9 15 ff ff ff       	jmp    402f0e <submitr+0x2fd>
  402ff9:	48 b8 45 72 72 6f 72 	movabs $0x55203a726f727245,%rax
  403000:	3a 20 55 
  403003:	48 ba 6e 61 62 6c 65 	movabs $0x6f7420656c62616e,%rdx
  40300a:	20 74 6f 
  40300d:	48 89 45 00          	mov    %rax,0x0(%rbp)
  403011:	48 89 55 08          	mov    %rdx,0x8(%rbp)
  403015:	48 b8 20 63 6f 6e 6e 	movabs $0x7463656e6e6f6320,%rax
  40301c:	65 63 74 
  40301f:	48 ba 20 74 6f 20 74 	movabs $0x20656874206f7420,%rdx
  403026:	68 65 20 
  403029:	48 89 45 10          	mov    %rax,0x10(%rbp)
  40302d:	48 89 55 18          	mov    %rdx,0x18(%rbp)
  403031:	48 b8 41 75 74 6f 6c 	movabs $0x2062616c6f747541,%rax
  403038:	61 62 20 
  40303b:	48 89 45 20          	mov    %rax,0x20(%rbp)
  40303f:	c7 45 28 73 65 72 76 	movl   $0x76726573,0x28(%rbp)
  403046:	66 c7 45 2c 65 72    	movw   $0x7265,0x2c(%rbp)
  40304c:	c6 45 2e 00          	movb   $0x0,0x2e(%rbp)
  403050:	89 df                	mov    %ebx,%edi
  403052:	e8 a9 e2 ff ff       	call   401300 <close@plt>
  403057:	b8 ff ff ff ff       	mov    $0xffffffff,%eax
  40305c:	e9 ad fe ff ff       	jmp    402f0e <submitr+0x2fd>
  403061:	48 b8 45 72 72 6f 72 	movabs $0x52203a726f727245,%rax
  403068:	3a 20 52 
  40306b:	48 ba 65 73 75 6c 74 	movabs $0x747320746c757365,%rdx
  403072:	20 73 74 
  403075:	48 89 45 00          	mov    %rax,0x0(%rbp)
  403079:	48 89 55 08          	mov    %rdx,0x8(%rbp)
  40307d:	48 b8 72 69 6e 67 20 	movabs $0x6f6f7420676e6972,%rax
  403084:	74 6f 6f 
  403087:	48 ba 20 6c 61 72 67 	movabs $0x202e656772616c20,%rdx
  40308e:	65 2e 20 
  403091:	48 89 45 10          	mov    %rax,0x10(%rbp)
  403095:	48 89 55 18          	mov    %rdx,0x18(%rbp)
  403099:	48 b8 49 6e 63 72 65 	movabs $0x6573616572636e49,%rax
  4030a0:	61 73 65 
  4030a3:	48 ba 20 53 55 42 4d 	movabs $0x5254494d42555320,%rdx
  4030aa:	49 54 52 
  4030ad:	48 89 45 20          	mov    %rax,0x20(%rbp)
  4030b1:	48 89 55 28          	mov    %rdx,0x28(%rbp)
  4030b5:	48 b8 5f 4d 41 58 42 	movabs $0x46554258414d5f,%rax
  4030bc:	55 46 00 
  4030bf:	48 89 45 30          	mov    %rax,0x30(%rbp)
  4030c3:	89 df                	mov    %ebx,%edi
  4030c5:	e8 36 e2 ff ff       	call   401300 <close@plt>
  4030ca:	b8 ff ff ff ff       	mov    $0xffffffff,%eax
  4030cf:	e9 3a fe ff ff       	jmp    402f0e <submitr+0x2fd>
  4030d4:	48 b8 45 72 72 6f 72 	movabs $0x52203a726f727245,%rax
  4030db:	3a 20 52 
  4030de:	48 ba 65 73 75 6c 74 	movabs $0x747320746c757365,%rdx
  4030e5:	20 73 74 
  4030e8:	48 89 45 00          	mov    %rax,0x0(%rbp)
  4030ec:	48 89 55 08          	mov    %rdx,0x8(%rbp)
  4030f0:	48 b8 72 69 6e 67 20 	movabs $0x6e6f6320676e6972,%rax
  4030f7:	63 6f 6e 
  4030fa:	48 ba 74 61 69 6e 73 	movabs $0x6e6120736e696174,%rdx
  403101:	20 61 6e 
  403104:	48 89 45 10          	mov    %rax,0x10(%rbp)
  403108:	48 89 55 18          	mov    %rdx,0x18(%rbp)
  40310c:	48 b8 20 69 6c 6c 65 	movabs $0x6c6167656c6c6920,%rax
  403113:	67 61 6c 
  403116:	48 ba 20 6f 72 20 75 	movabs $0x72706e7520726f20,%rdx
  40311d:	6e 70 72 
  403120:	48 89 45 20          	mov    %rax,0x20(%rbp)
  403124:	48 89 55 28          	mov    %rdx,0x28(%rbp)
  403128:	48 b8 69 6e 74 61 62 	movabs $0x20656c6261746e69,%rax
  40312f:	6c 65 20 
  403132:	48 ba 63 68 61 72 61 	movabs $0x6574636172616863,%rdx
  403139:	63 74 65 
  40313c:	48 89 45 30          	mov    %rax,0x30(%rbp)
  403140:	48 89 55 38          	mov    %rdx,0x38(%rbp)
  403144:	66 c7 45 40 72 2e    	movw   $0x2e72,0x40(%rbp)
  40314a:	c6 45 42 00          	movb   $0x0,0x42(%rbp)
  40314e:	89 df                	mov    %ebx,%edi
  403150:	e8 ab e1 ff ff       	call   401300 <close@plt>
  403155:	b8 ff ff ff ff       	mov    $0xffffffff,%eax
  40315a:	e9 af fd ff ff       	jmp    402f0e <submitr+0x2fd>
  40315f:	48 b8 45 72 72 6f 72 	movabs $0x43203a726f727245,%rax
  403166:	3a 20 43 
  403169:	48 ba 6c 69 65 6e 74 	movabs $0x6e7520746e65696c,%rdx
  403170:	20 75 6e 
  403173:	48 89 45 00          	mov    %rax,0x0(%rbp)
  403177:	48 89 55 08          	mov    %rdx,0x8(%rbp)
  40317b:	48 b8 61 62 6c 65 20 	movabs $0x206f7420656c6261,%rax
  403182:	74 6f 20 
  403185:	48 ba 77 72 69 74 65 	movabs $0x6f74206574697277,%rdx
  40318c:	20 74 6f 
  40318f:	48 89 45 10          	mov    %rax,0x10(%rbp)
  403193:	48 89 55 18          	mov    %rdx,0x18(%rbp)
  403197:	48 b8 20 74 68 65 20 	movabs $0x7475412065687420,%rax
  40319e:	41 75 74 
  4031a1:	48 ba 6f 6c 61 62 20 	movabs $0x7265732062616c6f,%rdx
  4031a8:	73 65 72 
  4031ab:	48 89 45 20          	mov    %rax,0x20(%rbp)
  4031af:	48 89 55 28          	mov    %rdx,0x28(%rbp)
  4031b3:	c7 45 30 76 65 72 00 	movl   $0x726576,0x30(%rbp)
  4031ba:	89 df                	mov    %ebx,%edi
  4031bc:	e8 3f e1 ff ff       	call   401300 <close@plt>
  4031c1:	b8 ff ff ff ff       	mov    $0xffffffff,%eax
  4031c6:	e9 43 fd ff ff       	jmp    402f0e <submitr+0x2fd>
  4031cb:	48 b8 45 72 72 6f 72 	movabs $0x43203a726f727245,%rax
  4031d2:	3a 20 43 
  4031d5:	48 ba 6c 69 65 6e 74 	movabs $0x6e7520746e65696c,%rdx
  4031dc:	20 75 6e 
  4031df:	48 89 45 00          	mov    %rax,0x0(%rbp)
  4031e3:	48 89 55 08          	mov    %rdx,0x8(%rbp)
  4031e7:	48 b8 61 62 6c 65 20 	movabs $0x206f7420656c6261,%rax
  4031ee:	74 6f 20 
  4031f1:	48 ba 72 65 61 64 20 	movabs $0x7269662064616572,%rdx
  4031f8:	66 69 72 
  4031fb:	48 89 45 10          	mov    %rax,0x10(%rbp)
  4031ff:	48 89 55 18          	mov    %rdx,0x18(%rbp)
  403203:	48 b8 73 74 20 68 65 	movabs $0x6564616568207473,%rax
  40320a:	61 64 65 
  40320d:	48 ba 72 20 66 72 6f 	movabs $0x41206d6f72662072,%rdx
  403214:	6d 20 41 
  403217:	48 89 45 20          	mov    %rax,0x20(%rbp)
  40321b:	48 89 55 28          	mov    %rdx,0x28(%rbp)
  40321f:	48 b8 75 74 6f 6c 61 	movabs $0x732062616c6f7475,%rax
  403226:	62 20 73 
  403229:	48 89 45 30          	mov    %rax,0x30(%rbp)
  40322d:	c7 45 38 65 72 76 65 	movl   $0x65767265,0x38(%rbp)
  403234:	66 c7 45 3c 72 00    	movw   $0x72,0x3c(%rbp)
  40323a:	89 df                	mov    %ebx,%edi
  40323c:	e8 bf e0 ff ff       	call   401300 <close@plt>
  403241:	b8 ff ff ff ff       	mov    $0xffffffff,%eax
  403246:	e9 c3 fc ff ff       	jmp    402f0e <submitr+0x2fd>
  40324b:	48 8d b4 24 50 20 00 	lea    0x2050(%rsp),%rsi
  403252:	00 
  403253:	48 8d 7c 24 40       	lea    0x40(%rsp),%rdi
  403258:	ba 00 20 00 00       	mov    $0x2000,%edx
  40325d:	e8 fe f7 ff ff       	call   402a60 <rio_readlineb>
  403262:	48 85 c0             	test   %rax,%rax
  403265:	0f 8e 96 00 00 00    	jle    403301 <submitr+0x6f0>
  40326b:	44 8b 44 24 2c       	mov    0x2c(%rsp),%r8d
  403270:	41 81 f8 c8 00 00 00 	cmp    $0xc8,%r8d
  403277:	0f 85 05 01 00 00    	jne    403382 <submitr+0x771>
  40327d:	48 8d b4 24 50 20 00 	lea    0x2050(%rsp),%rsi
  403284:	00 
  403285:	48 89 ef             	mov    %rbp,%rdi
  403288:	e8 13 e0 ff ff       	call   4012a0 <strcpy@plt>
  40328d:	89 df                	mov    %ebx,%edi
  40328f:	e8 6c e0 ff ff       	call   401300 <close@plt>
  403294:	b9 04 00 00 00       	mov    $0x4,%ecx
  403299:	48 8d 3d ad 15 00 00 	lea    0x15ad(%rip),%rdi        # 40484d <trans_char+0xdd>
  4032a0:	48 89 ee             	mov    %rbp,%rsi
  4032a3:	f3 a6                	repz cmpsb %es:(%rdi),%ds:(%rsi)
  4032a5:	0f 97 c0             	seta   %al
  4032a8:	1c 00                	sbb    $0x0,%al
  4032aa:	0f be c0             	movsbl %al,%eax
  4032ad:	85 c0                	test   %eax,%eax
  4032af:	0f 84 59 fc ff ff    	je     402f0e <submitr+0x2fd>
  4032b5:	b9 05 00 00 00       	mov    $0x5,%ecx
  4032ba:	48 8d 3d 90 15 00 00 	lea    0x1590(%rip),%rdi        # 404851 <trans_char+0xe1>
  4032c1:	48 89 ee             	mov    %rbp,%rsi
  4032c4:	f3 a6                	repz cmpsb %es:(%rdi),%ds:(%rsi)
  4032c6:	0f 97 c0             	seta   %al
  4032c9:	1c 00                	sbb    $0x0,%al
  4032cb:	0f be c0             	movsbl %al,%eax
  4032ce:	85 c0                	test   %eax,%eax
  4032d0:	0f 84 38 fc ff ff    	je     402f0e <submitr+0x2fd>
  4032d6:	b9 03 00 00 00       	mov    $0x3,%ecx
  4032db:	48 8d 3d 74 15 00 00 	lea    0x1574(%rip),%rdi        # 404856 <trans_char+0xe6>
  4032e2:	48 89 ee             	mov    %rbp,%rsi
  4032e5:	f3 a6                	repz cmpsb %es:(%rdi),%ds:(%rsi)
  4032e7:	0f 97 c0             	seta   %al
  4032ea:	1c 00                	sbb    $0x0,%al
  4032ec:	0f be c0             	movsbl %al,%eax
  4032ef:	85 c0                	test   %eax,%eax
  4032f1:	0f 84 17 fc ff ff    	je     402f0e <submitr+0x2fd>
  4032f7:	b8 ff ff ff ff       	mov    $0xffffffff,%eax
  4032fc:	e9 0d fc ff ff       	jmp    402f0e <submitr+0x2fd>
  403301:	48 b8 45 72 72 6f 72 	movabs $0x43203a726f727245,%rax
  403308:	3a 20 43 
  40330b:	48 ba 6c 69 65 6e 74 	movabs $0x6e7520746e65696c,%rdx
  403312:	20 75 6e 
  403315:	48 89 45 00          	mov    %rax,0x0(%rbp)
  403319:	48 89 55 08          	mov    %rdx,0x8(%rbp)
  40331d:	48 b8 61 62 6c 65 20 	movabs $0x206f7420656c6261,%rax
  403324:	74 6f 20 
  403327:	48 ba 72 65 61 64 20 	movabs $0x6174732064616572,%rdx
  40332e:	73 74 61 
  403331:	48 89 45 10          	mov    %rax,0x10(%rbp)
  403335:	48 89 55 18          	mov    %rdx,0x18(%rbp)
  403339:	48 b8 74 75 73 20 6d 	movabs $0x7373656d20737574,%rax
  403340:	65 73 73 
  403343:	48 ba 61 67 65 20 66 	movabs $0x6d6f726620656761,%rdx
  40334a:	72 6f 6d 
  40334d:	48 89 45 20          	mov    %rax,0x20(%rbp)
  403351:	48 89 55 28          	mov    %rdx,0x28(%rbp)
  403355:	48 b8 20 41 75 74 6f 	movabs $0x62616c6f74754120,%rax
  40335c:	6c 61 62 
  40335f:	48 ba 20 73 65 72 76 	movabs $0x72657672657320,%rdx
  403366:	65 72 00 
  403369:	48 89 45 30          	mov    %rax,0x30(%rbp)
  40336d:	48 89 55 38          	mov    %rdx,0x38(%rbp)
  403371:	89 df                	mov    %ebx,%edi
  403373:	e8 88 df ff ff       	call   401300 <close@plt>
  403378:	b8 ff ff ff ff       	mov    $0xffffffff,%eax
  40337d:	e9 8c fb ff ff       	jmp    402f0e <submitr+0x2fd>
  403382:	4c 8d 8c 24 50 80 00 	lea    0x8050(%rsp),%r9
  403389:	00 
  40338a:	48 8d 0d 77 14 00 00 	lea    0x1477(%rip),%rcx        # 404808 <trans_char+0x98>
  403391:	48 c7 c2 ff ff ff ff 	mov    $0xffffffffffffffff,%rdx
  403398:	be 01 00 00 00       	mov    $0x1,%esi
  40339d:	48 89 ef             	mov    %rbp,%rdi
  4033a0:	b8 00 00 00 00       	mov    $0x0,%eax
  4033a5:	e8 a6 e0 ff ff       	call   401450 <__sprintf_chk@plt>
  4033aa:	89 df                	mov    %ebx,%edi
  4033ac:	e8 4f df ff ff       	call   401300 <close@plt>
  4033b1:	b8 ff ff ff ff       	mov    $0xffffffff,%eax
  4033b6:	e9 53 fb ff ff       	jmp    402f0e <submitr+0x2fd>
  4033bb:	e8 51 f3 ff ff       	call   402711 <__stack_chk_fail>

00000000004033c0 <init_timeout>:
  4033c0:	f3 0f 1e fa          	endbr64 
  4033c4:	85 ff                	test   %edi,%edi
  4033c6:	74 26                	je     4033ee <init_timeout+0x2e>
  4033c8:	53                   	push   %rbx
  4033c9:	89 fb                	mov    %edi,%ebx
  4033cb:	78 1a                	js     4033e7 <init_timeout+0x27>
  4033cd:	48 8d 35 71 f5 ff ff 	lea    -0xa8f(%rip),%rsi        # 402945 <sigalrm_handler>
  4033d4:	bf 0e 00 00 00       	mov    $0xe,%edi
  4033d9:	e8 52 df ff ff       	call   401330 <signal@plt>
  4033de:	89 df                	mov    %ebx,%edi
  4033e0:	e8 0b df ff ff       	call   4012f0 <alarm@plt>
  4033e5:	5b                   	pop    %rbx
  4033e6:	c3                   	ret    
  4033e7:	bb 00 00 00 00       	mov    $0x0,%ebx
  4033ec:	eb df                	jmp    4033cd <init_timeout+0xd>
  4033ee:	c3                   	ret    

00000000004033ef <init_driver>:
  4033ef:	f3 0f 1e fa          	endbr64 
  4033f3:	41 54                	push   %r12
  4033f5:	55                   	push   %rbp
  4033f6:	53                   	push   %rbx
  4033f7:	48 83 ec 20          	sub    $0x20,%rsp
  4033fb:	48 89 fd             	mov    %rdi,%rbp
  4033fe:	64 48 8b 04 25 28 00 	mov    %fs:0x28,%rax
  403405:	00 00 
  403407:	48 89 44 24 18       	mov    %rax,0x18(%rsp)
  40340c:	31 c0                	xor    %eax,%eax
  40340e:	be 01 00 00 00       	mov    $0x1,%esi
  403413:	bf 0d 00 00 00       	mov    $0xd,%edi
  403418:	e8 13 df ff ff       	call   401330 <signal@plt>
  40341d:	be 01 00 00 00       	mov    $0x1,%esi
  403422:	bf 1d 00 00 00       	mov    $0x1d,%edi
  403427:	e8 04 df ff ff       	call   401330 <signal@plt>
  40342c:	be 01 00 00 00       	mov    $0x1,%esi
  403431:	bf 1d 00 00 00       	mov    $0x1d,%edi
  403436:	e8 f5 de ff ff       	call   401330 <signal@plt>
  40343b:	ba 00 00 00 00       	mov    $0x0,%edx
  403440:	be 01 00 00 00       	mov    $0x1,%esi
  403445:	bf 02 00 00 00       	mov    $0x2,%edi
  40344a:	e8 11 e0 ff ff       	call   401460 <socket@plt>
  40344f:	85 c0                	test   %eax,%eax
  403451:	0f 88 9c 00 00 00    	js     4034f3 <init_driver+0x104>
  403457:	89 c3                	mov    %eax,%ebx
  403459:	48 8d 3d f9 13 00 00 	lea    0x13f9(%rip),%rdi        # 404859 <trans_char+0xe9>
  403460:	e8 db de ff ff       	call   401340 <gethostbyname@plt>
  403465:	48 85 c0             	test   %rax,%rax
  403468:	0f 84 d1 00 00 00    	je     40353f <init_driver+0x150>
  40346e:	49 89 e4             	mov    %rsp,%r12
  403471:	48 c7 04 24 00 00 00 	movq   $0x0,(%rsp)
  403478:	00 
  403479:	48 c7 44 24 08 00 00 	movq   $0x0,0x8(%rsp)
  403480:	00 00 
  403482:	66 c7 04 24 02 00    	movw   $0x2,(%rsp)
  403488:	48 63 50 14          	movslq 0x14(%rax),%rdx
  40348c:	48 8b 40 18          	mov    0x18(%rax),%rax
  403490:	48 8b 30             	mov    (%rax),%rsi
  403493:	48 8d 7c 24 04       	lea    0x4(%rsp),%rdi
  403498:	b9 0c 00 00 00       	mov    $0xc,%ecx
  40349d:	e8 ae de ff ff       	call   401350 <__memmove_chk@plt>
  4034a2:	66 c7 44 24 02 30 39 	movw   $0x3930,0x2(%rsp)
  4034a9:	ba 10 00 00 00       	mov    $0x10,%edx
  4034ae:	4c 89 e6             	mov    %r12,%rsi
  4034b1:	89 df                	mov    %ebx,%edi
  4034b3:	e8 68 df ff ff       	call   401420 <connect@plt>
  4034b8:	85 c0                	test   %eax,%eax
  4034ba:	0f 88 e7 00 00 00    	js     4035a7 <init_driver+0x1b8>
  4034c0:	89 df                	mov    %ebx,%edi
  4034c2:	e8 39 de ff ff       	call   401300 <close@plt>
  4034c7:	66 c7 45 00 4f 4b    	movw   $0x4b4f,0x0(%rbp)
  4034cd:	c6 45 02 00          	movb   $0x0,0x2(%rbp)
  4034d1:	b8 00 00 00 00       	mov    $0x0,%eax
  4034d6:	48 8b 4c 24 18       	mov    0x18(%rsp),%rcx
  4034db:	64 48 33 0c 25 28 00 	xor    %fs:0x28,%rcx
  4034e2:	00 00 
  4034e4:	0f 85 10 01 00 00    	jne    4035fa <init_driver+0x20b>
  4034ea:	48 83 c4 20          	add    $0x20,%rsp
  4034ee:	5b                   	pop    %rbx
  4034ef:	5d                   	pop    %rbp
  4034f0:	41 5c                	pop    %r12
  4034f2:	c3                   	ret    
  4034f3:	48 b8 45 72 72 6f 72 	movabs $0x43203a726f727245,%rax
  4034fa:	3a 20 43 
  4034fd:	48 ba 6c 69 65 6e 74 	movabs $0x6e7520746e65696c,%rdx
  403504:	20 75 6e 
  403507:	48 89 45 00          	mov    %rax,0x0(%rbp)
  40350b:	48 89 55 08          	mov    %rdx,0x8(%rbp)
  40350f:	48 b8 61 62 6c 65 20 	movabs $0x206f7420656c6261,%rax
  403516:	74 6f 20 
  403519:	48 ba 63 72 65 61 74 	movabs $0x7320657461657263,%rdx
  403520:	65 20 73 
  403523:	48 89 45 10          	mov    %rax,0x10(%rbp)
  403527:	48 89 55 18          	mov    %rdx,0x18(%rbp)
  40352b:	c7 45 20 6f 63 6b 65 	movl   $0x656b636f,0x20(%rbp)
  403532:	66 c7 45 24 74 00    	movw   $0x74,0x24(%rbp)
  403538:	b8 ff ff ff ff       	mov    $0xffffffff,%eax
  40353d:	eb 97                	jmp    4034d6 <init_driver+0xe7>
  40353f:	48 b8 45 72 72 6f 72 	movabs $0x44203a726f727245,%rax
  403546:	3a 20 44 
  403549:	48 ba 4e 53 20 69 73 	movabs $0x6e7520736920534e,%rdx
  403550:	20 75 6e 
  403553:	48 89 45 00          	mov    %rax,0x0(%rbp)
  403557:	48 89 55 08          	mov    %rdx,0x8(%rbp)
  40355b:	48 b8 61 62 6c 65 20 	movabs $0x206f7420656c6261,%rax
  403562:	74 6f 20 
  403565:	48 ba 72 65 73 6f 6c 	movabs $0x2065766c6f736572,%rdx
  40356c:	76 65 20 
  40356f:	48 89 45 10          	mov    %rax,0x10(%rbp)
  403573:	48 89 55 18          	mov    %rdx,0x18(%rbp)
  403577:	48 b8 73 65 72 76 65 	movabs $0x6120726576726573,%rax
  40357e:	72 20 61 
  403581:	48 89 45 20          	mov    %rax,0x20(%rbp)
  403585:	c7 45 28 64 64 72 65 	movl   $0x65726464,0x28(%rbp)
  40358c:	66 c7 45 2c 73 73    	movw   $0x7373,0x2c(%rbp)
  403592:	c6 45 2e 00          	movb   $0x0,0x2e(%rbp)
  403596:	89 df                	mov    %ebx,%edi
  403598:	e8 63 dd ff ff       	call   401300 <close@plt>
  40359d:	b8 ff ff ff ff       	mov    $0xffffffff,%eax
  4035a2:	e9 2f ff ff ff       	jmp    4034d6 <init_driver+0xe7>
  4035a7:	48 b8 45 72 72 6f 72 	movabs $0x55203a726f727245,%rax
  4035ae:	3a 20 55 
  4035b1:	48 ba 6e 61 62 6c 65 	movabs $0x6f7420656c62616e,%rdx
  4035b8:	20 74 6f 
  4035bb:	48 89 45 00          	mov    %rax,0x0(%rbp)
  4035bf:	48 89 55 08          	mov    %rdx,0x8(%rbp)
  4035c3:	48 b8 20 63 6f 6e 6e 	movabs $0x7463656e6e6f6320,%rax
  4035ca:	65 63 74 
  4035cd:	48 ba 20 74 6f 20 73 	movabs $0x76726573206f7420,%rdx
  4035d4:	65 72 76 
  4035d7:	48 89 45 10          	mov    %rax,0x10(%rbp)
  4035db:	48 89 55 18          	mov    %rdx,0x18(%rbp)
  4035df:	66 c7 45 20 65 72    	movw   $0x7265,0x20(%rbp)
  4035e5:	c6 45 22 00          	movb   $0x0,0x22(%rbp)
  4035e9:	89 df                	mov    %ebx,%edi
  4035eb:	e8 10 dd ff ff       	call   401300 <close@plt>
  4035f0:	b8 ff ff ff ff       	mov    $0xffffffff,%eax
  4035f5:	e9 dc fe ff ff       	jmp    4034d6 <init_driver+0xe7>
  4035fa:	e8 12 f1 ff ff       	call   402711 <__stack_chk_fail>

00000000004035ff <driver_post>:
  4035ff:	f3 0f 1e fa          	endbr64 
  403603:	53                   	push   %rbx
  403604:	4c 89 cb             	mov    %r9,%rbx
  403607:	45 85 c0             	test   %r8d,%r8d
  40360a:	75 18                	jne    403624 <driver_post+0x25>
  40360c:	48 85 ff             	test   %rdi,%rdi
  40360f:	74 05                	je     403616 <driver_post+0x17>
  403611:	80 3f 00             	cmpb   $0x0,(%rdi)
  403614:	75 37                	jne    40364d <driver_post+0x4e>
  403616:	66 c7 03 4f 4b       	movw   $0x4b4f,(%rbx)
  40361b:	c6 43 02 00          	movb   $0x0,0x2(%rbx)
  40361f:	44 89 c0             	mov    %r8d,%eax
  403622:	5b                   	pop    %rbx
  403623:	c3                   	ret    
  403624:	48 89 ca             	mov    %rcx,%rdx
  403627:	48 8d 35 3b 12 00 00 	lea    0x123b(%rip),%rsi        # 404869 <trans_char+0xf9>
  40362e:	bf 01 00 00 00       	mov    $0x1,%edi
  403633:	b8 00 00 00 00       	mov    $0x0,%eax
  403638:	e8 83 dd ff ff       	call   4013c0 <__printf_chk@plt>
  40363d:	66 c7 03 4f 4b       	movw   $0x4b4f,(%rbx)
  403642:	c6 43 02 00          	movb   $0x0,0x2(%rbx)
  403646:	b8 00 00 00 00       	mov    $0x0,%eax
  40364b:	eb d5                	jmp    403622 <driver_post+0x23>
  40364d:	48 83 ec 08          	sub    $0x8,%rsp
  403651:	41 51                	push   %r9
  403653:	49 89 c9             	mov    %rcx,%r9
  403656:	49 89 d0             	mov    %rdx,%r8
  403659:	48 89 f9             	mov    %rdi,%rcx
  40365c:	48 89 f2             	mov    %rsi,%rdx
  40365f:	be 39 30 00 00       	mov    $0x3039,%esi
  403664:	48 8d 3d ee 11 00 00 	lea    0x11ee(%rip),%rdi        # 404859 <trans_char+0xe9>
  40366b:	e8 a1 f5 ff ff       	call   402c11 <submitr>
  403670:	48 83 c4 10          	add    $0x10,%rsp
  403674:	eb ac                	jmp    403622 <driver_post+0x23>

0000000000403676 <check>:
  403676:	f3 0f 1e fa          	endbr64 
  40367a:	89 f8                	mov    %edi,%eax
  40367c:	c1 e8 1c             	shr    $0x1c,%eax
  40367f:	74 1d                	je     40369e <check+0x28>
  403681:	b9 00 00 00 00       	mov    $0x0,%ecx
  403686:	83 f9 1f             	cmp    $0x1f,%ecx
  403689:	7f 0d                	jg     403698 <check+0x22>
  40368b:	89 f8                	mov    %edi,%eax
  40368d:	d3 e8                	shr    %cl,%eax
  40368f:	3c 0a                	cmp    $0xa,%al
  403691:	74 11                	je     4036a4 <check+0x2e>
  403693:	83 c1 08             	add    $0x8,%ecx
  403696:	eb ee                	jmp    403686 <check+0x10>
  403698:	b8 01 00 00 00       	mov    $0x1,%eax
  40369d:	c3                   	ret    
  40369e:	b8 00 00 00 00       	mov    $0x0,%eax
  4036a3:	c3                   	ret    
  4036a4:	b8 00 00 00 00       	mov    $0x0,%eax
  4036a9:	c3                   	ret    

00000000004036aa <gencookie>:
  4036aa:	f3 0f 1e fa          	endbr64 
  4036ae:	53                   	push   %rbx
  4036af:	83 c7 01             	add    $0x1,%edi
  4036b2:	e8 b9 db ff ff       	call   401270 <srandom@plt>
  4036b7:	e8 d4 dc ff ff       	call   401390 <random@plt>
  4036bc:	48 89 c7             	mov    %rax,%rdi
  4036bf:	89 c3                	mov    %eax,%ebx
  4036c1:	e8 b0 ff ff ff       	call   403676 <check>
  4036c6:	85 c0                	test   %eax,%eax
  4036c8:	74 ed                	je     4036b7 <gencookie+0xd>
  4036ca:	89 d8                	mov    %ebx,%eax
  4036cc:	5b                   	pop    %rbx
  4036cd:	c3                   	ret    
  4036ce:	66 90                	xchg   %ax,%ax

00000000004036d0 <__libc_csu_init>:
  4036d0:	f3 0f 1e fa          	endbr64 
  4036d4:	41 57                	push   %r15
  4036d6:	4c 8d 3d 33 37 00 00 	lea    0x3733(%rip),%r15        # 406e10 <__frame_dummy_init_array_entry>
  4036dd:	41 56                	push   %r14
  4036df:	49 89 d6             	mov    %rdx,%r14
  4036e2:	41 55                	push   %r13
  4036e4:	49 89 f5             	mov    %rsi,%r13
  4036e7:	41 54                	push   %r12
  4036e9:	41 89 fc             	mov    %edi,%r12d
  4036ec:	55                   	push   %rbp
  4036ed:	48 8d 2d 24 37 00 00 	lea    0x3724(%rip),%rbp        # 406e18 <__do_global_dtors_aux_fini_array_entry>
  4036f4:	53                   	push   %rbx
  4036f5:	4c 29 fd             	sub    %r15,%rbp
  4036f8:	48 83 ec 08          	sub    $0x8,%rsp
  4036fc:	e8 ff d8 ff ff       	call   401000 <_init>
  403701:	48 c1 fd 03          	sar    $0x3,%rbp
  403705:	74 1f                	je     403726 <__libc_csu_init+0x56>
  403707:	31 db                	xor    %ebx,%ebx
  403709:	0f 1f 80 00 00 00 00 	nopl   0x0(%rax)
  403710:	4c 89 f2             	mov    %r14,%rdx
  403713:	4c 89 ee             	mov    %r13,%rsi
  403716:	44 89 e7             	mov    %r12d,%edi
  403719:	41 ff 14 df          	call   *(%r15,%rbx,8)
  40371d:	48 83 c3 01          	add    $0x1,%rbx
  403721:	48 39 dd             	cmp    %rbx,%rbp
  403724:	75 ea                	jne    403710 <__libc_csu_init+0x40>
  403726:	48 83 c4 08          	add    $0x8,%rsp
  40372a:	5b                   	pop    %rbx
  40372b:	5d                   	pop    %rbp
  40372c:	41 5c                	pop    %r12
  40372e:	41 5d                	pop    %r13
  403730:	41 5e                	pop    %r14
  403732:	41 5f                	pop    %r15
  403734:	c3                   	ret    
  403735:	66 66 2e 0f 1f 84 00 	data16 cs nopw 0x0(%rax,%rax,1)
  40373c:	00 00 00 00 

0000000000403740 <__libc_csu_fini>:
  403740:	f3 0f 1e fa          	endbr64 
  403744:	c3                   	ret    

Disassembly of section .fini:

0000000000403748 <_fini>:
  403748:	f3 0f 1e fa          	endbr64 
  40374c:	48 83 ec 08          	sub    $0x8,%rsp
  403750:	48 83 c4 08          	add    $0x8,%rsp
  403754:	c3                   	ret    
